BL51 BANKED LINKER/LOCATER V6.22.4.0                                                    07/21/2026  18:51:08  PAGE 1


BL51 BANKED LINKER/LOCATER V6.22.4.0, INVOKED BY:
C:\KEIL_V5\C51\BIN\BL51.EXE .\Release\Objects\STARTUP.obj, .\Release\Objects\system.obj, .\Release\Objects\adc.obj, .\Re
>> lease\Objects\pwm.obj, .\Release\Objects\timer0.obj, .\Release\Objects\timer1.obj, .\Release\Objects\uart0.obj, .\Rel
>> ease\Objects\main.obj, .\Release\Objects\uart_data_handle.obj, .\Release\Objects\key_driver.obj, .\Release\Objects\ad
>> _key.obj, .\Release\Objects\user_test.obj, .\Release\Objects\led.obj, .\Release\Objects\battery_monitor.obj, .\Releas
>> e\Objects\bluetooth_ic_handle.obj, .\Release\Objects\charge_det.obj, .\Release\Objects\low_power.obj, .\Release\Objec
>> ts\bat_scan.obj, .\Release\Objects\led_bat_lev.obj TO .\Release\Objects\Demo PRINT (.\Release\Listings\Demo.m51) RAMS
>> IZE (256) CODE (0X0000-0X3EEF) XDATA (0X6000-0X66FF)


MEMORY MODEL: LARGE


INPUT MODULES INCLUDED:
  .\Release\Objects\STARTUP.obj (?C_STARTUP)
  .\Release\Objects\system.obj (SYSTEM)
  .\Release\Objects\adc.obj (ADC)
  .\Release\Objects\pwm.obj (PWM)
  .\Release\Objects\timer0.obj (TIMER0)
  .\Release\Objects\timer1.obj (TIMER1)
  .\Release\Objects\uart0.obj (UART0)
  .\Release\Objects\main.obj (MAIN)
  .\Release\Objects\uart_data_handle.obj (UART_DATA_HANDLE)
  .\Release\Objects\key_driver.obj (KEY_DRIVER)
  .\Release\Objects\ad_key.obj (AD_KEY)
  .\Release\Objects\user_test.obj (USER_TEST)
  .\Release\Objects\led.obj (LED)
  .\Release\Objects\battery_monitor.obj (BATTERY_MONITOR)
  .\Release\Objects\bluetooth_ic_handle.obj (BLUETOOTH_IC_HANDLE)
  .\Release\Objects\charge_det.obj (CHARGE_DET)
  .\Release\Objects\low_power.obj (LOW_POWER)
  .\Release\Objects\bat_scan.obj (BAT_SCAN)
  .\Release\Objects\led_bat_lev.obj (LED_BAT_LEV)
  C:\KEIL_V5\C51\LIB\C51L.LIB (?C_INIT)
  C:\KEIL_V5\C51\LIB\C51L.LIB (?C?COPY)
  C:\KEIL_V5\C51\LIB\C51L.LIB (?C?CLDPTR)
  C:\KEIL_V5\C51\LIB\C51L.LIB (?C?CLDOPTR)
  C:\KEIL_V5\C51\LIB\C51L.LIB (?C?CILDOPTR)
  C:\KEIL_V5\C51\LIB\C51L.LIB (?C?CSTOPTR)
  C:\KEIL_V5\C51\LIB\C51L.LIB (?C?UIDIV)
  C:\KEIL_V5\C51\LIB\C51L.LIB (?C?IILDX)
  C:\KEIL_V5\C51\LIB\C51L.LIB (?C?LADD)
  C:\KEIL_V5\C51\LIB\C51L.LIB (?C?ULDIV)
  C:\KEIL_V5\C51\LIB\C51L.LIB (?C?SLCMP)
  C:\KEIL_V5\C51\LIB\C51L.LIB (?C?ULCMP)
  C:\KEIL_V5\C51\LIB\C51L.LIB (?C?LLDXDATA)
  C:\KEIL_V5\C51\LIB\C51L.LIB (?C?LLDXDATA0)
  C:\KEIL_V5\C51\LIB\C51L.LIB (?C?LSTXDATA)
  C:\KEIL_V5\C51\LIB\C51L.LIB (?C?LSTKXDATA)
  C:\KEIL_V5\C51\LIB\C51L.LIB (?C?PLDXDATA)
  C:\KEIL_V5\C51\LIB\C51L.LIB (?C?PSTXDATA)
  C:\KEIL_V5\C51\LIB\C51L.LIB (?C?PLDOPTR)
  C:\KEIL_V5\C51\LIB\C51L.LIB (?C?CCASE)
  C:\KEIL_V5\C51\LIB\C51L.LIB (?C?ICALL)
  C:\KEIL_V5\C51\LIB\C51L.LIB (?C?LIMUL)
  C:\KEIL_V5\C51\LIB\C51L.LIB (?C?MEMSET)
  C:\KEIL_V5\C51\LIB\C51L.LIB (?C?PLDIDATA)
  C:\KEIL_V5\C51\LIB\C51L.LIB (?C?PLDPDATA)
BL51 BANKED LINKER/LOCATER V6.22.4.0                                                  07/21/2026  18:51:08  PAGE 2


  C:\KEIL_V5\C51\LIB\C51L.LIB (?C?PLDCODE)


LINK MAP OF MODULE:  .\Release\Objects\Demo (?C_STARTUP)


            TYPE    BASE      LENGTH    RELOCATION   SEGMENT NAME
            -----------------------------------------------------

            * * * * * * *   D A T A   M E M O R Y   * * * * * * *
            REG     0000H     0008H     ABSOLUTE     "REG BANK 0"
                    0008H     0018H                  *** GAP ***
            BIT     0020H.0   0000H.4   UNIT         ?BI?ADC
            BIT     0020H.4   0000H.1   UNIT         ?BI?CHARGE_DET
                    0020H.5   0000H.3                *** GAP ***
            IDATA   0021H     0001H     UNIT         ?STACK

            * * * * * * *  X D A T A   M E M O R Y  * * * * * * *
                    0000H     6000H                  *** GAP ***
            XDATA   6000H     00DBH     UNIT         ?XD?BAT_SCAN
            XDATA   60DBH     0086H     UNIT         ?XD?UART0
            XDATA   6161H     0039H     UNIT         ?XD?AD_KEY
            XDATA   619AH     0027H     UNIT         ?XD?CHARGE_DET
            XDATA   61C1H     001AH     UNIT         ?XD?UART_DATA_HANDLE
            XDATA   61DBH     0019H     UNIT         _XDATA_GROUP_
            XDATA   61F4H     0016H     UNIT         ?XD?BATTERY_MONITOR
            XDATA   620AH     000FH     UNIT         ?XD?LED_BAT_LEV
            XDATA   6219H     000EH     UNIT         ?XD?LED
            XDATA   6227H     0009H     UNIT         ?XD?ADC
            XDATA   6230H     0006H     UNIT         ?XD?LOW_POWER
            XDATA   6236H     0004H     UNIT         ?XD?KEY_DRIVER
            XDATA   623AH     0002H     UNIT         ?XD?BLUETOOTH_IC_HANDLE

            * * * * * * *   C O D E   M E M O R Y   * * * * * * *
            CODE    0000H     0003H     ABSOLUTE     
            CODE    0003H     000CH     ABSOLUTE     
            CODE    000FH     000FH     UNIT         ?PR?UART_RECEIVER_TIMEOUT_ADD?UART_DATA_HANDLE
            CODE    001EH     0003H     ABSOLUTE     
            CODE    0021H     0003H     ABSOLUTE     
            CODE    0024H     001BH     UNIT         ?PR?_ADC_CLEAR_UPDATE_FLAG?ADC
            CODE    003FH     0003H     ABSOLUTE     
            CODE    0042H     0003H     ABSOLUTE     
            CODE    0045H     0006H     UNIT         ?PR?LED_BAT_LEV_STA_IDLE_HANDLE?LED_BAT_LEV
            CODE    004BH     0003H     ABSOLUTE     
            CODE    004EH     0438H     UNIT         ?C?LIB_CODE
            CODE    0486H     02C9H     UNIT         ?C_INITSEG
            CODE    074FH     028DH     UNIT         ?PR?LED_BAT_LEV_STA_DISCHARGE_HANDLE?LED_BAT_LEV
            CODE    09DCH     01AAH     UNIT         ?PR?DETECT_1KHZ_SIGNAL_100US?CHARGE_DET
            CODE    0B86H     0193H     UNIT         ?PR?_KEY_DRIVER_SCAN?KEY_DRIVER
            CODE    0D19H     0157H     UNIT         ?PR?DETECT_DISCHARGE_1KHZ_SIGNAL_100US?CHARGE_DET
            CODE    0E70H     0128H     UNIT         ?PR?LOW_POWER_HANDLE?LOW_POWER
            CODE    0F98H     0127H     UNIT         ?PR?CHARGE_DET?CHARGE_DET
            CODE    10BFH     0114H     UNIT         ?PR?LED_BAT_LEV_STA_CHARGING_HANDLE?LED_BAT_LEV
            CODE    11D3H     0111H     UNIT         ?PR?LED_SLOW_ADJUST_ISR?LED
            CODE    12E4H     010BH     UNIT         ?PR?LOW_POWER_IN?LOW_POWER
            CODE    13EFH     00EAH     UNIT         ?PR?LED_RED_BLUE_FLASH_1MS_ISR?LED
            CODE    14D9H     00D1H     UNIT         ?PR?BATTTERY_MONITOR_1MS_ISR?BATTERY_MONITOR
BL51 BANKED LINKER/LOCATER V6.22.4.0                                                  07/21/2026  18:51:08  PAGE 3


            CODE    15AAH     00CFH     UNIT         ?PR?SYSTEM_INIT?SYSTEM
            CODE    1679H     00ADH     UNIT         ?PR?_BAT_DISCHARGE_TIME_CNT_UPDATE?BATTERY_MONITOR
            CODE    1726H     00A5H     UNIT         ?PR?_UART_RECEIVER_PROCESS_BYTE?UART_DATA_HANDLE
            CODE    17CBH     009BH     UNIT         ?PR?AD_KEY_HANDLE?AD_KEY
            CODE    1866H     0096H     UNIT         ?PR?LED_BAT_LEV
            CODE    18FCH     0093H     UNIT         ?PR?LED
            CODE    198FH     008CH     UNIT         ?C_C51STARTUP
            CODE    1A1BH     008BH     UNIT         ?PR?PWM_INIT?PWM
            CODE    1AA6H     0087H     UNIT         ?PR?ADC_IRQHANDLER?ADC
            CODE    1B2DH     0087H     UNIT         ?PR?_BAT_CHARGE_TIME_CNT_UPDATE?BATTERY_MONITOR
            CODE    1BB4H     0083H     UNIT         ?PR?BATTERY_MONITOR_HANDLE?BATTERY_MONITOR
            CODE    1C37H     0079H     UNIT         ?PR?UART_DATA_HANDLE?UART_DATA_HANDLE
            CODE    1CB0H     0076H     UNIT         ?PR?BATTERY_VOLTAGE_UPDATE_BY_ISR?BAT_SCAN
            CODE    1D26H     0074H     UNIT         ?PR?_LED_STATUS_SET?LED
            CODE    1D9AH     006CH     UNIT         ?PR?TIMR0_IRQHANDLER?TIMER0
            CODE    1E06H     0067H     UNIT         ?PR?LED_BAT_LEV_HANDLE?LED_BAT_LEV
            CODE    1E6DH     0066H     UNIT         ?PR?ADC_SCAN?ADC
            CODE    1ED3H     0065H     UNIT         ?PR?LED_BAT_LEV_STA_CHARGE_BEGIN_ANIM_HANDLE?LED_BAT_LEV
            CODE    1F38H     005FH     UNIT         ?PR?SEND_LOW_BAT_TIMER_CALLBACK?BATTERY_MONITOR
            CODE    1F97H     0057H     UNIT         ?PR?LOW_POWER_ENTER_TIMER_CALLBACK?LOW_POWER
            CODE    1FEEH     0053H     UNIT         ?PR?MAIN?MAIN
            CODE    2041H     0053H     UNIT         ?PR?_LED_BAT_LEV_INIT_BY_VOL?LED_BAT_LEV
            CODE    2094H     004EH     UNIT         ?PR?LED_INIT?LED
            CODE    20E2H     004CH     UNIT         ?PR?_AD_KEY_VAL_TO_AD_KEY_INDEX?AD_KEY
            CODE    212EH     004BH     UNIT         ?PR?_ADC_CHANNEL_SEL?ADC
            CODE    2179H     004AH     UNIT         ?PR?_AD_KEY_GET_EVENT?AD_KEY
            CODE    21C3H     004AH     UNIT         ?PR?LOW_POWER_OUT?LOW_POWER
            CODE    220DH     0048H     UNIT         ?PR?TIMR1_IRQHANDLER?TIMER1
            CODE    2255H     0047H     UNIT         ?PR?_UART0_RXBUFFER_PUT_BYTE?UART0
            CODE    229CH     0045H     UNIT         ?PR?_UART_DATA_SEND_CMD?UART_DATA_HANDLE
            CODE    22E1H     0045H     UNIT         ?PR?BAT_VOL_HISTORY_BUFF_GET_AVG?BAT_SCAN
            CODE    2326H     0043H     UNIT         ?PR?BAT_SCAN
            CODE    2369H     0042H     UNIT         ?PR?UART0_RXBUFFER_GET_BYTE?UART0
            CODE    23ABH     003DH     UNIT         ?PR?_ADC_UPDATE_VAL?ADC
            CODE    23E8H     003CH     UNIT         ?PR?BATTERY_MONITOR
            CODE    2424H     003AH     UNIT         ?PR?UART0_INIT?UART0
            CODE    245EH     0039H     UNIT         ?PR?BAT_VOL_UPDATE_TIMER_CALLBACK?BAT_SCAN
            CODE    2497H     0036H     UNIT         ?PR?LED_BAT_LEV_DISLPLAY_1MS_ISR?LED_BAT_LEV
            CODE    24CDH     0034H     UNIT         ?PR?UART0_IRQHANDLER?UART0
            CODE    2501H     0033H     UNIT         ?PR?AD_KEY_GET_KEY_VAL?AD_KEY
            CODE    2534H     002FH     UNIT         ?PR?BAT_SCAN?BAT_SCAN
            CODE    2563H     002EH     UNIT         ?PR?_ADC_GET_VAL?ADC
            CODE    2591H     002EH     UNIT         ?PR?ADC
            CODE    25BFH     002EH     UNIT         ?PR?BAT_VOL_HISTORY_BUFF_ADD_TIMER_CALLBACK?BAT_SCAN
            CODE    25EDH     002BH     UNIT         ?PR?CHARGE_DET
            CODE    2618H     002AH     UNIT         ?PR?LED_STATUS_SWITCH?LED
            CODE    2642H     0026H     UNIT         ?PR?LED_BAT_LEV_STA_ALERT_HANDLE?LED_BAT_LEV
            CODE    2668H     0025H     UNIT         ?PR?_ADC_GET_UPDATE_FLAG?ADC
            CODE    268DH     0024H     UNIT         ?PR?IS_LOW_POWER_CONDITION_ESTABLISH?LOW_POWER
            CODE    26B1H     0023H     UNIT         ?PR?_UART0_SENDBUF?UART0
            CODE    26D4H     0022H     UNIT         ?PR?ADC_INIT?ADC
            CODE    26F6H     0022H     UNIT         ?PR?UART_RECEIVER_PROCESS_CHECKSUM?UART_DATA_HANDLE
            CODE    2718H     0022H     UNIT         ?PR?_GET_BATTERY_VOLTAGE_BY_ADC?BAT_SCAN
            CODE    273AH     0021H     UNIT         ?PR?USER_INIT?MAIN
            CODE    275BH     0021H     UNIT         ?PR?KEY_DRIVER
            CODE    277CH     001BH     UNIT         ?PR?TIMER0_INIT?TIMER0
            CODE    2797H     001BH     UNIT         ?PR?TIMER1_INIT?TIMER1
BL51 BANKED LINKER/LOCATER V6.22.4.0                                                  07/21/2026  18:51:08  PAGE 4


            CODE    27B2H     001AH     UNIT         ?PR?BLUETOOTH_IC_HANDLE_INIT?BLUETOOTH_IC_HANDLE
            CODE    27CCH     001AH     UNIT         ?PR?_BAT_VOL_HISTORY_BUFF_ADD?BAT_SCAN
            CODE    27E6H     0019H     UNIT         ?PR?CHARGE_DET_INIT?CHARGE_DET
            CODE    27FFH     0018H     UNIT         ?PR?_DELAY_MS?SYSTEM
            CODE    2817H     0018H     UNIT         ?PR?WUT_IRQHANDLER?LOW_POWER
            CODE    282FH     0017H     UNIT         ?PR?ADC_GET_VAL_ONCE?ADC
            CODE    2846H     0017H     UNIT         ?PR?UART_DATA_HANDLE
            CODE    285DH     0016H     UNIT         ?PR?PWM
            CODE    2873H     0016H     UNIT         ?PR?BAT_GET_AVG_VOL_PERIOD_ADD?BAT_SCAN
            CODE    2889H     0016H     UNIT         ?PR?_BAT_VOL_HISTORY_BUFF_INIT?BAT_SCAN
            CODE    289FH     0015H     UNIT         ?PR?BLE_IC_ENABLE?BLUETOOTH_IC_HANDLE
            CODE    28B4H     0015H     UNIT         ?PR?LED_BAT_LEV_STA_CHARGE_BEGIN_HANDLE?LED_BAT_LEV
            CODE    28C9H     0013H     UNIT         ?PR?UART_RECEIVER_TIMEOUT_HANDLER?UART_DATA_HANDLE
            CODE    28DCH     0012H     UNIT         ?PR?ADC_INIT_WHEN_LOW_PWR_OUT?ADC
            CODE    28EEH     0012H     UNIT         ?PR?UART_RECEIVER_RESET?UART_DATA_HANDLE
            CODE    2900H     0011H     UNIT         ?PR?ADC_PIN_INIT?ADC
            CODE    2911H     000FH     UNIT         ?PR?AD_KEY
            CODE    2920H     000FH     UNIT         ?PR?LED_CTL_INIT?LED
            CODE    292FH     000DH     UNIT         ?PR?LED_YELLOW_ON?LED
            CODE    293CH     000DH     UNIT         ?PR?LED_WHITE_ON?LED
            CODE    2949H     000BH     UNIT         ?PR?_DELAY?SYSTEM
            CODE    2954H     000AH     UNIT         ?PR?LOW_POWER
            CODE    295EH     0009H     UNIT         ?PR?_PWM_SET_CHANNEL_0_DUTY?PWM
            CODE    2967H     0009H     UNIT         ?PR?_PWM_SET_CHANNEL_1_DUTY?PWM
            CODE    2970H     0009H     UNIT         ?PR?UART0_RXBUFFER_GET_COUNT?UART0
            CODE    2979H     0009H     UNIT         ?PR?LED_BAT_LEV_STA_CHARGE_END_HANDLE?LED_BAT_LEV
            CODE    2982H     0008H     UNIT         ?PR?_UART0_SENDBYTE?UART0
            CODE    298AH     0008H     UNIT         ?CO?UART_DATA_HANDLE
            CODE    2992H     0008H     UNIT         ?PR?LED_YELLOW_OFF?LED
            CODE    299AH     0008H     UNIT         ?PR?LED_WHITE_OFF?LED
            CODE    29A2H     0008H     UNIT         ?PR?BLE_IC_DISABLE_POST?BLUETOOTH_IC_HANDLE
            CODE    29AAH     0007H     UNIT         ?PR?UART0
            CODE    29B1H     0005H     UNIT         ?PR?BLE_IC_DISABLE_PRE?BLUETOOTH_IC_HANDLE
            CODE    29B6H     0003H     UNIT         ?PR?CHARGE_DET_TIME_ADD?CHARGE_DET



OVERLAY MAP OF MODULE:   .\Release\Objects\Demo (?C_STARTUP)


SEGMENT                                            XDATA_GROUP
  +--> CALLED SEGMENT                            START    LENGTH
----------------------------------------------------------------
?C_C51STARTUP                                    -----    -----
  +--> ?PR?MAIN?MAIN
  +--> ?C_INITSEG

?PR?MAIN?MAIN                                    -----    -----
  +--> ?PR?SYSTEM_INIT?SYSTEM
  +--> ?PR?USER_INIT?MAIN
  +--> ?PR?_DELAY_MS?SYSTEM
  +--> ?PR?_KEY_DRIVER_SCAN?KEY_DRIVER
  +--> ?PR?AD_KEY_HANDLE?AD_KEY
  +--> ?PR?UART_DATA_HANDLE?UART_DATA_HANDLE
  +--> ?PR?CHARGE_DET?CHARGE_DET
  +--> ?PR?BAT_SCAN?BAT_SCAN
  +--> ?PR?LED_BAT_LEV_HANDLE?LED_BAT_LEV
BL51 BANKED LINKER/LOCATER V6.22.4.0                                                  07/21/2026  18:51:08  PAGE 5


  +--> ?PR?BATTERY_MONITOR_HANDLE?BATTERY_MO...
  +--> ?PR?LOW_POWER_HANDLE?LOW_POWER

?PR?SYSTEM_INIT?SYSTEM                           -----    -----
  +--> ?PR?_DELAY?SYSTEM
  +--> ?PR?_DELAY_MS?SYSTEM

?PR?_DELAY_MS?SYSTEM                             -----    -----
  +--> ?PR?_DELAY?SYSTEM

?PR?USER_INIT?MAIN                               -----    -----
  +--> ?PR?ADC_PIN_INIT?ADC
  +--> ?PR?ADC_INIT?ADC
  +--> ?PR?LED_INIT?LED
  +--> ?PR?UART0_INIT?UART0
  +--> ?PR?PWM_INIT?PWM
  +--> ?PR?BLUETOOTH_IC_HANDLE_INIT?BLUETOOT...
  +--> ?PR?UART_RECEIVER_RESET?UART_DATA_HANDLE
  +--> ?PR?LED_CTL_INIT?LED
  +--> ?PR?CHARGE_DET_INIT?CHARGE_DET
  +--> ?PR?TIMER0_INIT?TIMER0
  +--> ?PR?TIMER1_INIT?TIMER1

?PR?ADC_INIT?ADC                                 -----    -----
  +--> ?PR?_DELAY_MS?SYSTEM

?PR?LED_INIT?LED                                 -----    -----
  +--> ?PR?LED

?PR?PWM_INIT?PWM                                 -----    -----
  +--> ?PR?PWM

?PR?_KEY_DRIVER_SCAN?KEY_DRIVER                  61DBH    0002H
  +--> ?PR?KEY_DRIVER

?PR?AD_KEY_HANDLE?AD_KEY                         61DBH    0001H
  +--> ?PR?_AD_KEY_GET_EVENT?AD_KEY
  +--> ?PR?LED_STATUS_SWITCH?LED
  +--> ?PR?_UART_DATA_SEND_CMD?UART_DATA_HANDLE
  +--> ?PR?BLE_IC_DISABLE_PRE?BLUETOOTH_IC_H...
  +--> ?PR?BLE_IC_ENABLE?BLUETOOTH_IC_HANDLE

?PR?_AD_KEY_GET_EVENT?AD_KEY                     -----    -----
  +--> ?PR?AD_KEY

?PR?LED_STATUS_SWITCH?LED                        -----    -----
  +--> ?PR?_LED_STATUS_SET?LED

?PR?_LED_STATUS_SET?LED                          61DCH    0001H
  +--> ?PR?LED_YELLOW_OFF?LED
  +--> ?PR?LED_WHITE_OFF?LED
  +--> ?PR?LED_WHITE_ON?LED
  +--> ?PR?LED_YELLOW_ON?LED

?PR?LED_WHITE_ON?LED                             -----    -----
  +--> ?PR?_PWM_SET_CHANNEL_1_DUTY?PWM

BL51 BANKED LINKER/LOCATER V6.22.4.0                                                  07/21/2026  18:51:08  PAGE 6


?PR?_PWM_SET_CHANNEL_1_DUTY?PWM                  -----    -----
  +--> ?PR?PWM

?PR?LED_YELLOW_ON?LED                            -----    -----
  +--> ?PR?_PWM_SET_CHANNEL_0_DUTY?PWM

?PR?_PWM_SET_CHANNEL_0_DUTY?PWM                  -----    -----
  +--> ?PR?PWM

?PR?_UART_DATA_SEND_CMD?UART_DATA_HANDLE         61DCH    0009H
  +--> ?CO?UART_DATA_HANDLE
  +--> ?PR?_UART0_SENDBUF?UART0

?PR?_UART0_SENDBUF?UART0                         61E5H    0003H
  +--> ?PR?_UART0_SENDBYTE?UART0

?PR?BLE_IC_DISABLE_PRE?BLUETOOTH_IC_H...         -----    -----
  +--> ?PR?_UART_DATA_SEND_CMD?UART_DATA_HANDLE

?PR?BLE_IC_ENABLE?BLUETOOTH_IC_HANDLE            -----    -----
  +--> ?PR?_DELAY_MS?SYSTEM
  +--> ?PR?_UART_DATA_SEND_CMD?UART_DATA_HANDLE

?PR?UART_DATA_HANDLE?UART_DATA_HANDLE            -----    -----
  +--> ?PR?UART_RECEIVER_RESET?UART_DATA_HANDLE
  +--> ?PR?UART_RECEIVER_TIMEOUT_HANDLER?UAR...
  +--> ?PR?UART0_RXBUFFER_GET_COUNT?UART0
  +--> ?PR?UART0_RXBUFFER_GET_BYTE?UART0
  +--> ?PR?_UART_RECEIVER_PROCESS_BYTE?UART_...
  +--> ?PR?BLE_IC_DISABLE_POST?BLUETOOTH_IC_...

?PR?UART_RECEIVER_TIMEOUT_HANDLER?UAR...         -----    -----
  +--> ?PR?UART_RECEIVER_RESET?UART_DATA_HANDLE

?PR?UART0_RXBUFFER_GET_BYTE?UART0                -----    -----
  +--> ?PR?UART0

?PR?_UART_RECEIVER_PROCESS_BYTE?UART_...         -----    -----
  +--> ?PR?UART_DATA_HANDLE
  +--> ?PR?UART_RECEIVER_PROCESS_CHECKSUM?UA...

?PR?CHARGE_DET?CHARGE_DET                        61DBH    0002H
  +--> ?PR?_ADC_GET_UPDATE_FLAG?ADC
  +--> ?PR?_ADC_CLEAR_UPDATE_FLAG?ADC
  +--> ?PR?_ADC_GET_VAL?ADC
  +--> ?PR?CHARGE_DET

?PR?BAT_SCAN?BAT_SCAN                            -----    -----
  +--> ?PR?BAT_SCAN
  +--> ?PR?BAT_VOL_HISTORY_BUFF_GET_AVG?BAT_...

?PR?BAT_VOL_HISTORY_BUFF_GET_AVG?BAT_...         61DBH    0005H
  +--> ?PR?BAT_SCAN

?PR?BATTERY_MONITOR_HANDLE?BATTERY_MO...         -----    -----
  +--> ?PR?_LED_STATUS_SET?LED
  +--> ?PR?_UART_DATA_SEND_CMD?UART_DATA_HANDLE
BL51 BANKED LINKER/LOCATER V6.22.4.0                                                  07/21/2026  18:51:08  PAGE 7


  +--> ?PR?_DELAY_MS?SYSTEM
  +--> ?PR?BLE_IC_DISABLE_PRE?BLUETOOTH_IC_H...
  +--> ?PR?BLE_IC_ENABLE?BLUETOOTH_IC_HANDLE

?PR?LOW_POWER_HANDLE?LOW_POWER                   61DBH    0007H
  +--> ?PR?LOW_POWER
  +--> ?PR?LOW_POWER_IN?LOW_POWER
  +--> ?PR?LOW_POWER_OUT?LOW_POWER
  +--> ?PR?ADC_PIN_INIT?ADC
  +--> ?PR?ADC_INIT_WHEN_LOW_PWR_OUT?ADC
  +--> ?PR?_ADC_CHANNEL_SEL?ADC
  +--> ?PR?_DELAY_MS?SYSTEM
  +--> ?PR?ADC_GET_VAL_ONCE?ADC
  +--> ?PR?_GET_BATTERY_VOLTAGE_BY_ADC?BAT_SCAN
  +--> ?PR?USER_INIT?MAIN

?PR?LOW_POWER_IN?LOW_POWER                       -----    -----
  +--> ?PR?_DELAY_MS?SYSTEM

?PR?ADC_GET_VAL_ONCE?ADC                         -----    -----
  +--> ?PR?ADC

?PR?ADC                                          -----    -----
  +--> ?PR?_ADC_CHANNEL_SEL?ADC

?C_INITSEG                                       -----    -----
  +--> ?PR?AD_KEY_GET_KEY_VAL?AD_KEY

?PR?AD_KEY_GET_KEY_VAL?AD_KEY                    61DBH    0001H
  +--> ?PR?_ADC_GET_UPDATE_FLAG?ADC
  +--> ?PR?_ADC_CLEAR_UPDATE_FLAG?ADC
  +--> ?PR?_ADC_GET_VAL?ADC
  +--> ?PR?_AD_KEY_VAL_TO_AD_KEY_INDEX?AD_KEY

?PR?_AD_KEY_VAL_TO_AD_KEY_INDEX?AD_KEY           61DCH    0002H

*** NEW ROOT ***************************************************

?PR?ADC_IRQHANDLER?ADC                           61E8H    0002H
  +--> ?PR?ADC
  +--> ?PR?_ADC_UPDATE_VAL?ADC
  +--> ?PR?BATTERY_VOLTAGE_UPDATE_BY_ISR?BAT...

?PR?BATTERY_VOLTAGE_UPDATE_BY_ISR?BAT...         61EAH    0004H
  +--> ?PR?_ADC_GET_UPDATE_FLAG?ADC
  +--> ?PR?_ADC_CLEAR_UPDATE_FLAG?ADC
  +--> ?PR?_ADC_GET_VAL?ADC
  +--> ?PR?_GET_BATTERY_VOLTAGE_BY_ADC?BAT_SCAN
  +--> ?PR?BAT_SCAN
  +--> ?PR?_BAT_VOL_HISTORY_BUFF_INIT?BAT_SCAN
  +--> ?PR?_LED_BAT_LEV_INIT_BY_VOL?LED_BAT_LEV
  +--> ?PR?_BAT_CHARGE_TIME_CNT_UPDATE?BATTE...
  +--> ?PR?_BAT_DISCHARGE_TIME_CNT_UPDATE?BA...

?PR?_BAT_VOL_HISTORY_BUFF_INIT?BAT_SCAN          -----    -----
  +--> ?PR?BAT_SCAN

BL51 BANKED LINKER/LOCATER V6.22.4.0                                                  07/21/2026  18:51:08  PAGE 8


?PR?_BAT_DISCHARGE_TIME_CNT_UPDATE?BA...         61F0H    0002H
  +--> ?PR?BATTERY_MONITOR

*** NEW ROOT ***************************************************

?PR?TIMR0_IRQHANDLER?TIMER0                      -----    -----
  +--> ?PR?ADC_SCAN?ADC
  +--> ?PR?CHARGE_DET_TIME_ADD?CHARGE_DET
  +--> ?PR?UART_RECEIVER_TIMEOUT_ADD?UART_DA...
  +--> ?PR?BAT_VOL_UPDATE_TIMER_CALLBACK?BAT...
  +--> ?PR?BAT_VOL_HISTORY_BUFF_ADD_TIMER_CA...
  +--> ?PR?BAT_GET_AVG_VOL_PERIOD_ADD?BAT_SCAN
  +--> ?PR?LED_SLOW_ADJUST_ISR?LED
  +--> ?PR?LED_RED_BLUE_FLASH_1MS_ISR?LED
  +--> ?PR?LOW_POWER_ENTER_TIMER_CALLBACK?LO...
  +--> ?PR?SEND_LOW_BAT_TIMER_CALLBACK?BATTE...
  +--> ?PR?LED_BAT_LEV_DISLPLAY_1MS_ISR?LED_...
  +--> ?PR?BATTTERY_MONITOR_1MS_ISR?BATTERY_...

?PR?ADC_SCAN?ADC                                 -----    -----
  +--> ?PR?ADC

?PR?BAT_VOL_HISTORY_BUFF_ADD_TIMER_CA...         -----    -----
  +--> ?PR?BAT_SCAN
  +--> ?PR?_BAT_VOL_HISTORY_BUFF_ADD?BAT_SCAN

?PR?_BAT_VOL_HISTORY_BUFF_ADD?BAT_SCAN           -----    -----
  +--> ?PR?BAT_SCAN

?PR?BAT_GET_AVG_VOL_PERIOD_ADD?BAT_SCAN          -----    -----
  +--> ?PR?BAT_SCAN

?PR?LED_SLOW_ADJUST_ISR?LED                      -----    -----
  +--> ?PR?LED
  +--> ?PR?_PWM_SET_CHANNEL_0_DUTY?PWM
  +--> ?PR?_PWM_SET_CHANNEL_1_DUTY?PWM

?PR?LED_RED_BLUE_FLASH_1MS_ISR?LED               61F0H    0002H
  +--> ?PR?LED

?PR?LOW_POWER_ENTER_TIMER_CALLBACK?LO...         -----    -----
  +--> ?PR?IS_LOW_POWER_CONDITION_ESTABLISH?...

?PR?SEND_LOW_BAT_TIMER_CALLBACK?BATTE...         -----    -----
  +--> ?PR?BATTERY_MONITOR

?PR?LED_BAT_LEV_DISLPLAY_1MS_ISR?LED_...         -----    -----
  +--> ?PR?LED_BAT_LEV_STA_IDLE_HANDLE?LED_B...
  +--> ?PR?LED_BAT_LEV_STA_CHARGE_BEGIN_HAND...
  +--> ?PR?LED_BAT_LEV_STA_CHARGE_BEGIN_ANIM...
  +--> ?PR?LED_BAT_LEV_STA_CHARGING_HANDLE?L...
  +--> ?PR?LED_BAT_LEV_STA_CHARGE_END_HANDLE...
  +--> ?PR?LED_BAT_LEV_STA_ALERT_HANDLE?LED_...
  +--> ?PR?LED_BAT_LEV_STA_DISCHARGE_HANDLE?...

?PR?LED_BAT_LEV_STA_IDLE_HANDLE?LED_B...         -----    -----
  +--> ?PR?LED_BAT_LEV
BL51 BANKED LINKER/LOCATER V6.22.4.0                                                  07/21/2026  18:51:08  PAGE 9



?PR?LED_BAT_LEV_STA_CHARGE_BEGIN_HAND...         -----    -----
  +--> ?PR?LED_BAT_LEV

?PR?LED_BAT_LEV_STA_CHARGE_BEGIN_ANIM...         -----    -----
  +--> ?PR?LED_BAT_LEV

?PR?LED_BAT_LEV_STA_CHARGING_HANDLE?L...         -----    -----
  +--> ?PR?LED_BAT_LEV

?PR?LED_BAT_LEV_STA_ALERT_HANDLE?LED_...         -----    -----
  +--> ?PR?LED_BAT_LEV

?PR?LED_BAT_LEV_STA_DISCHARGE_HANDLE?...         61F0H    0001H
  +--> ?PR?LED_BAT_LEV

?PR?BATTTERY_MONITOR_1MS_ISR?BATTERY_...         -----    -----
  +--> ?PR?BATTERY_MONITOR
  +--> ?PR?_BAT_VOL_HISTORY_BUFF_INIT?BAT_SCAN
  +--> ?PR?_BAT_DISCHARGE_TIME_CNT_UPDATE?BA...
  +--> ?PR?_BAT_CHARGE_TIME_CNT_UPDATE?BATTE...

*** NEW ROOT ***************************************************

?PR?TIMR1_IRQHANDLER?TIMER1                      -----    -----
  +--> ?PR?DETECT_1KHZ_SIGNAL_100US?CHARGE_DET
  +--> ?PR?DETECT_DISCHARGE_1KHZ_SIGNAL_100U...

?PR?DETECT_1KHZ_SIGNAL_100US?CHARGE_DET          61F2H    0001H
  +--> ?PR?CHARGE_DET

?PR?DETECT_DISCHARGE_1KHZ_SIGNAL_100U...         61F2H    0001H
  +--> ?PR?CHARGE_DET

*** NEW ROOT ***************************************************

?PR?UART0_IRQHANDLER?UART0                       61F3H    0001H
  +--> ?PR?_UART0_RXBUFFER_PUT_BYTE?UART0

?PR?_UART0_RXBUFFER_PUT_BYTE?UART0               -----    -----
  +--> ?PR?UART0



SYMBOL TABLE OF MODULE:  .\Release\Objects\Demo (?C_STARTUP)

  VALUE           TYPE          NAME
  ----------------------------------

  -------         MODULE        ?C_STARTUP
  C:198FH         SEGMENT       ?C_C51STARTUP
  I:0021H         SEGMENT       ?STACK
  C:0000H         PUBLIC        ?C_STARTUP
  D:00E0H         SYMBOL        ACC
  D:00F0H         SYMBOL        B
  D:0083H         SYMBOL        DPH
  D:0082H         SYMBOL        DPL
BL51 BANKED LINKER/LOCATER V6.22.4.0                                                  07/21/2026  18:51:08  PAGE 10


  N:0000H         SYMBOL        IBPSTACK
  N:0100H         SYMBOL        IBPSTACKTOP
  N:0080H         SYMBOL        IDATALEN
  C:1992H         SYMBOL        IDATALOOP
  N:0000H         SYMBOL        PBPSTACK
  N:0100H         SYMBOL        PBPSTACKTOP
  N:0000H         SYMBOL        PDATALEN
  N:0000H         SYMBOL        PDATASTART
  N:0000H         SYMBOL        PPAGE
  N:0000H         SYMBOL        PPAGEENABLE
  D:00A0H         SYMBOL        PPAGE_SFR
  D:0081H         SYMBOL        SP
  C:198FH         SYMBOL        STARTUP1
  N:0000H         SYMBOL        XBPSTACK
  N:0000H         SYMBOL        XBPSTACKTOP
  N:0000H         SYMBOL        XDATALEN
  N:0000H         SYMBOL        XDATASTART
  C:0000H         LINE#         126
  C:198FH         LINE#         133
  C:1991H         LINE#         134
  C:1992H         LINE#         135
  C:1993H         LINE#         136
  C:1995H         LINE#         185
  C:1998H         LINE#         196
  -------         ENDMOD        ?C_STARTUP

  -------         MODULE        SYSTEM
  C:0000H         SYMBOL        _ICE_DUMMY_
  D:00A7H         PUBLIC        FLASH_TIMEREG0
  D:00ACH         PUBLIC        FLASH_TIMEREG1
  C:2949H         PUBLIC        _delay
  C:27FFH         PUBLIC        _delay_ms
  C:15AAH         PUBLIC        system_init
  -------         PROC          _DELAY
  D:0006H         SYMBOL        cnt
  C:2949H         LINE#         37
  C:2949H         LINE#         38
  C:2949H         LINE#         39
  C:2953H         LINE#         40
  C:2953H         LINE#         41
  C:2953H         LINE#         42
  -------         ENDPROC       _DELAY
  -------         PROC          _DELAY_MS
  D:0002H         SYMBOL        ms
  C:27FFH         LINE#         49
  C:2803H         LINE#         50
  C:2803H         LINE#         51
  C:280DH         LINE#         52
  C:280DH         LINE#         53
  C:2814H         LINE#         54
  C:2816H         LINE#         55
  -------         ENDPROC       _DELAY_MS
  -------         PROC          SYSTEM_INIT
  -------         DO            
  D:0007H         SYMBOL        i
  -------         ENDDO         
  C:15AAH         LINE#         62
BL51 BANKED LINKER/LOCATER V6.22.4.0                                                  07/21/2026  18:51:08  PAGE 11


  C:15AAH         LINE#         63
  C:15AAH         LINE#         66
  C:15B1H         LINE#         67
  C:15BEH         LINE#         68
  C:15C1H         LINE#         69
  C:15C4H         LINE#         70
  C:15CAH         LINE#         71
  C:15D0H         LINE#         72
  C:15D6H         LINE#         76
  C:15D8H         LINE#         77
  C:15D8H         LINE#         78
  C:15E5H         LINE#         79
  C:15EAH         LINE#         81
  C:1678H         LINE#         82
  -------         ENDPROC       SYSTEM_INIT
  -------         ENDMOD        SYSTEM

  -------         MODULE        ADC
  C:0000H         SYMBOL        _ICE_DUMMY_
  D:00A8H         PUBLIC        IE0
  D:00A9H         PUBLIC        IE1
  D:00AAH         PUBLIC        IE2
  D:00ABH         PUBLIC        IE3
  B:00A8H.7       PUBLIC        IE_EA
  D:00B8H         PUBLIC        IP0
  D:00B1H         PUBLIC        IP1
  D:00B2H         PUBLIC        IP2
  D:00B3H         PUBLIC        IP3
  D:00B4H         PUBLIC        IP4
  D:00B5H         PUBLIC        IP5
  D:00B6H         PUBLIC        IP6
  D:00B7H         PUBLIC        IP7
  D:0093H         PUBLIC        ADC_DATAH0
  D:0094H         PUBLIC        ADC_DATAL0
  D:0099H         PUBLIC        ADC_CHS0
  X:6227H         PUBLIC        cur_adc_status
  C:2900H         PUBLIC        adc_pin_init
  C:26D4H         PUBLIC        adc_init
  C:1E6DH         PUBLIC        adc_scan
  C:28DCH         PUBLIC        adc_init_when_low_pwr_out
  C:23ABH         PUBLIC        _adc_update_val
  C:2563H         PUBLIC        _adc_get_val
  C:2668H         PUBLIC        _adc_get_update_flag
  C:0024H         PUBLIC        _adc_clear_update_flag
  C:212EH         PUBLIC        _adc_channel_sel
  C:282FH         PUBLIC        adc_get_val_once
  X:6228H         SYMBOL        adc_adkey_val
  B:0020H.0       SYMBOL        flag_is_adkey_val_update
  X:622AH         SYMBOL        adc_bat_det_val
  B:0020H.1       SYMBOL        flag_is_adc_bat_det_val_update
  X:622CH         SYMBOL        adc_solar_det_val
  B:0020H.2       SYMBOL        flag_is_adc_solar_det_val_update
  X:622EH         SYMBOL        adc_type_c_det_val
  B:0020H.3       SYMBOL        flag_is_adc_type_c_det_val_update
  C:1AA6H         PUBLIC        ADC_IRQHandler
  C:2591H         SYMBOL        Com0067
  C:2591H         SYMBOL        L?0104
BL51 BANKED LINKER/LOCATER V6.22.4.0                                                  07/21/2026  18:51:08  PAGE 12


  C:2591H         SYMBOL        L?0105
  C:259BH         SYMBOL        L?0106
  C:259BH         SYMBOL        L?0107
  C:25A4H         SYMBOL        L?0108
  C:25A4H         SYMBOL        L?0109
  C:25ABH         SYMBOL        L?0110
  C:25B5H         SYMBOL        L?0111
  -------         PROC          COM0067
  -------         ENDPROC       COM0067
  -------         PROC          ADC_PIN_INIT
  C:2900H         LINE#         26
  C:2900H         LINE#         27
  C:2900H         LINE#         29
  C:2906H         LINE#         32
  C:290CH         LINE#         35
  C:2910H         LINE#         36
  -------         ENDPROC       ADC_PIN_INIT
  -------         PROC          ADC_INIT
  C:26D4H         LINE#         38
  C:26D4H         LINE#         39
  C:26D4H         LINE#         40
  C:26D9H         LINE#         42
  C:26DFH         LINE#         46
  C:26E2H         LINE#         47
  C:26E4H         LINE#         49
  C:26EAH         LINE#         51
  C:26EFH         LINE#         54
  -------         ENDPROC       ADC_INIT
  -------         PROC          _ADC_UPDATE_VAL
  D:0007H         SYMBOL        adc_channel
  D:0004H         SYMBOL        adc_val
  C:23ABH         LINE#         63
  C:23ABH         LINE#         64
  C:23ABH         LINE#         65
  C:23BAH         LINE#         66
  C:23BAH         LINE#         67
  C:23BAH         LINE#         68
  C:23C2H         LINE#         69
  C:23C4H         LINE#         70
  C:23C5H         LINE#         71
  C:23C5H         LINE#         72
  C:23CDH         LINE#         73
  C:23CFH         LINE#         74
  C:23D0H         LINE#         75
  C:23D0H         LINE#         76
  C:23D8H         LINE#         77
  C:23DAH         LINE#         78
  C:23DBH         LINE#         79
  C:23DBH         LINE#         80
  C:23E5H         LINE#         81
  C:23E7H         LINE#         82
  C:23E7H         LINE#         83
  C:23E7H         LINE#         84
  -------         ENDPROC       _ADC_UPDATE_VAL
  -------         PROC          _ADC_GET_VAL
  D:0007H         SYMBOL        adc_channel
  -------         DO            
BL51 BANKED LINKER/LOCATER V6.22.4.0                                                  07/21/2026  18:51:08  PAGE 13


  D:0004H         SYMBOL        ret
  -------         ENDDO         
  C:2563H         LINE#         86
  C:2563H         LINE#         87
  C:2563H         LINE#         88
  C:2566H         LINE#         89
  C:2575H         LINE#         90
  C:2575H         LINE#         91
  C:2575H         LINE#         92
  C:2578H         LINE#         93
  C:257AH         LINE#         94
  C:257AH         LINE#         95
  C:257DH         LINE#         96
  C:257FH         LINE#         97
  C:257FH         LINE#         98
  C:2582H         LINE#         99
  C:2584H         LINE#         100
  C:2584H         LINE#         101
  C:258CH         LINE#         102
  C:258CH         LINE#         104
  C:258CH         LINE#         105
  C:258CH         LINE#         106
  C:258CH         LINE#         108
  C:2590H         LINE#         109
  -------         ENDPROC       _ADC_GET_VAL
  -------         PROC          _ADC_GET_UPDATE_FLAG
  D:0007H         SYMBOL        adc_channel
  -------         DO            
  D:0006H         SYMBOL        ret
  -------         ENDDO         
  C:2668H         LINE#         112
  C:2668H         LINE#         113
  C:2668H         LINE#         114
  C:266AH         LINE#         115
  C:2679H         LINE#         116
  C:2679H         LINE#         117
  C:2679H         LINE#         118
  C:267BH         LINE#         119
  C:267DH         LINE#         120
  C:267DH         LINE#         121
  C:267FH         LINE#         122
  C:2681H         LINE#         123
  C:2681H         LINE#         124
  C:2683H         LINE#         125
  C:2685H         LINE#         126
  C:2685H         LINE#         127
  C:268AH         LINE#         128
  C:268AH         LINE#         130
  C:268AH         LINE#         131
  C:268AH         LINE#         132
  C:268AH         LINE#         134
  C:268CH         LINE#         135
  -------         ENDPROC       _ADC_GET_UPDATE_FLAG
  -------         PROC          _ADC_CLEAR_UPDATE_FLAG
  D:0007H         SYMBOL        adc_channel
  C:0024H         LINE#         138
  C:0024H         LINE#         139
BL51 BANKED LINKER/LOCATER V6.22.4.0                                                  07/21/2026  18:51:08  PAGE 14


  C:0024H         LINE#         140
  C:0033H         LINE#         141
  C:0033H         LINE#         142
  C:0033H         LINE#         143
  C:0035H         LINE#         144
  C:0036H         LINE#         145
  C:0036H         LINE#         146
  C:0038H         LINE#         147
  C:0039H         LINE#         148
  C:0039H         LINE#         149
  C:003BH         LINE#         150
  C:003CH         LINE#         151
  C:003CH         LINE#         152
  C:003EH         LINE#         153
  C:003EH         LINE#         155
  C:003EH         LINE#         156
  C:003EH         LINE#         157
  C:003EH         LINE#         158
  -------         ENDPROC       _ADC_CLEAR_UPDATE_FLAG
  -------         PROC          _ADC_CHANNEL_SEL
  D:0007H         SYMBOL        adc_channel
  C:212EH         LINE#         160
  C:212EH         LINE#         161
  C:212EH         LINE#         162
  C:2135H         LINE#         166
  C:2144H         LINE#         167
  C:2144H         LINE#         168
  C:2144H         LINE#         170
  C:214BH         LINE#         172
  C:214EH         LINE#         173
  C:2150H         LINE#         174
  C:2150H         LINE#         175
  C:2157H         LINE#         178
  C:215AH         LINE#         180
  C:215CH         LINE#         181
  C:215CH         LINE#         185
  C:2163H         LINE#         188
  C:2166H         LINE#         189
  C:2168H         LINE#         191
  C:2168H         LINE#         192
  C:216FH         LINE#         195
  C:2172H         LINE#         196
  C:2172H         LINE#         198
  C:2172H         LINE#         199
  C:2172H         LINE#         200
  C:2172H         LINE#         202
  C:2178H         LINE#         204
  -------         ENDPROC       _ADC_CHANNEL_SEL
  -------         PROC          ADC_INIT_WHEN_LOW_PWR_OUT
  C:28DCH         LINE#         207
  C:28DCH         LINE#         208
  C:28DCH         LINE#         209
  C:28E2H         LINE#         212
  C:28E8H         LINE#         213
  C:28EDH         LINE#         215
  -------         ENDPROC       ADC_INIT_WHEN_LOW_PWR_OUT
  -------         PROC          ADC_GET_VAL_ONCE
BL51 BANKED LINKER/LOCATER V6.22.4.0                                                  07/21/2026  18:51:08  PAGE 15


  C:282FH         LINE#         218
  C:282FH         LINE#         219
  C:282FH         LINE#         220
  C:2835H         LINE#         221
  C:283BH         LINE#         223
  C:283DH         LINE#         224
  C:2845H         LINE#         225
  -------         ENDPROC       ADC_GET_VAL_ONCE
  -------         PROC          ADC_SCAN
  C:1E6DH         LINE#         228
  C:1E6DH         LINE#         229
  C:1E6DH         LINE#         231
  C:1E93H         LINE#         232
  C:1E93H         LINE#         233
  C:1E93H         LINE#         235
  C:1E93H         LINE#         236
  C:1E95H         LINE#         237
  C:1E9BH         LINE#         238
  C:1E9CH         LINE#         239
  C:1E9CH         LINE#         241
  C:1E9CH         LINE#         242
  C:1EA2H         LINE#         243
  C:1EA3H         LINE#         244
  C:1EA3H         LINE#         245
  C:1EA5H         LINE#         246
  C:1EABH         LINE#         247
  C:1EACH         LINE#         248
  C:1EACH         LINE#         253
  C:1EACH         LINE#         254
  C:1EB2H         LINE#         255
  C:1EB3H         LINE#         256
  C:1EB3H         LINE#         257
  C:1EB5H         LINE#         258
  C:1EBBH         LINE#         259
  C:1EBCH         LINE#         260
  C:1EBCH         LINE#         261
  C:1EBCH         LINE#         262
  C:1EC2H         LINE#         263
  C:1EC3H         LINE#         264
  C:1EC3H         LINE#         265
  C:1EC5H         LINE#         266
  C:1ECBH         LINE#         267
  C:1ECCH         LINE#         268
  C:1ECCH         LINE#         269
  C:1ECCH         LINE#         270
  C:1ED2H         LINE#         271
  C:1ED2H         LINE#         273
  C:1ED2H         LINE#         274
  C:1ED2H         LINE#         275
  C:1ED2H         LINE#         276
  -------         ENDPROC       ADC_SCAN
  -------         PROC          ADC_IRQHANDLER
  -------         DO            
  X:61E8H         SYMBOL        adc_val
  -------         ENDDO         
  C:1AA6H         LINE#         278
  C:1AC3H         LINE#         283
BL51 BANKED LINKER/LOCATER V6.22.4.0                                                  07/21/2026  18:51:08  PAGE 16


  C:1AC3H         LINE#         287
  C:1AC9H         LINE#         288
  C:1AC9H         LINE#         289
  C:1ACCH         LINE#         290
  C:1ADBH         LINE#         292
  C:1AEFH         LINE#         293
  C:1AEFH         LINE#         294
  C:1AEFH         LINE#         295
  C:1AF4H         LINE#         296
  C:1AF6H         LINE#         297
  C:1AF6H         LINE#         298
  C:1AFEH         LINE#         299
  C:1B01H         LINE#         300
  C:1B03H         LINE#         301
  C:1B03H         LINE#         302
  C:1B08H         LINE#         303
  C:1B0AH         LINE#         304
  C:1B0AH         LINE#         305
  C:1B12H         LINE#         306
  C:1B12H         LINE#         308
  C:1B12H         LINE#         309
  C:1B12H         LINE#         310
  C:1B12H         LINE#         311
  C:1B12H         LINE#         314
  C:1B12H         LINE#         315
  -------         ENDPROC       ADC_IRQHANDLER
  -------         ENDMOD        ADC

  -------         MODULE        PWM
  C:0000H         SYMBOL        _ICE_DUMMY_
  B:00A0H.7       PUBLIC        P27
  B:00B0H.0       PUBLIC        P30
  C:1A1BH         PUBLIC        pwm_init
  C:295EH         PUBLIC        _pwm_set_channel_0_duty
  C:2967H         PUBLIC        _pwm_set_channel_1_duty
  C:285DH         SYMBOL        Com0004
  C:285DH         SYMBOL        L?0005
  C:2868H         SYMBOL        L?0006
  -------         PROC          COM0004
  -------         ENDPROC       COM0004
  -------         PROC          PWM_INIT
  C:1A1BH         LINE#         3
  C:1A1BH         LINE#         4
  C:1A1BH         LINE#         6
  C:1A21H         LINE#         7
  C:1A25H         LINE#         9
  C:1A27H         LINE#         10
  C:1A2CH         LINE#         13
  C:1A32H         LINE#         14
  C:1A36H         LINE#         16
  C:1A38H         LINE#         17
  C:1A3DH         LINE#         21
  C:1A43H         LINE#         22
  C:1A48H         LINE#         23
  C:1A4DH         LINE#         24
  C:1A51H         LINE#         25
  C:1A53H         LINE#         26
BL51 BANKED LINKER/LOCATER V6.22.4.0                                                  07/21/2026  18:51:08  PAGE 17


  C:1A53H         LINE#         27
  C:1A53H         LINE#         29
  C:1A59H         LINE#         30
  C:1A5FH         LINE#         31
  C:1A65H         LINE#         32
  C:1A6BH         LINE#         33
  C:1A71H         LINE#         37
  C:1A77H         LINE#         38
  C:1A7CH         LINE#         39
  C:1A81H         LINE#         40
  C:1A85H         LINE#         41
  C:1A87H         LINE#         42
  C:1A87H         LINE#         43
  C:1A87H         LINE#         45
  C:1A8DH         LINE#         46
  C:1A93H         LINE#         47
  C:1A99H         LINE#         48
  C:1A9FH         LINE#         49
  C:1AA5H         LINE#         50
  -------         ENDPROC       PWM_INIT
  -------         PROC          _PWM_SET_CHANNEL_0_DUTY
  D:0004H         SYMBOL        channel_duty
  C:295EH         LINE#         53
  C:295EH         LINE#         54
  C:295EH         LINE#         55
  C:2960H         LINE#         56
  C:2960H         LINE#         57
  C:2966H         LINE#         58
  -------         ENDPROC       _PWM_SET_CHANNEL_0_DUTY
  -------         PROC          _PWM_SET_CHANNEL_1_DUTY
  D:0004H         SYMBOL        channel_duty
  C:2967H         LINE#         61
  C:2967H         LINE#         62
  C:2967H         LINE#         63
  C:2969H         LINE#         64
  C:2969H         LINE#         65
  C:296FH         LINE#         66
  -------         ENDPROC       _PWM_SET_CHANNEL_1_DUTY
  -------         ENDMOD        PWM

  -------         MODULE        TIMER0
  C:0000H         SYMBOL        _ICE_DUMMY_
  D:00A8H         PUBLIC        IE0
  D:00A9H         PUBLIC        IE1
  D:00AAH         PUBLIC        IE2
  D:00ABH         PUBLIC        IE3
  B:00A8H.7       PUBLIC        IE_EA
  D:00B8H         PUBLIC        IP0
  D:00B1H         PUBLIC        IP1
  D:00B2H         PUBLIC        IP2
  D:00B3H         PUBLIC        IP3
  D:00B4H         PUBLIC        IP4
  D:00B5H         PUBLIC        IP5
  D:00B6H         PUBLIC        IP6
  D:00B7H         PUBLIC        IP7
  D:00D1H         PUBLIC        TMR_ALLCON
  C:277CH         PUBLIC        timer0_init
BL51 BANKED LINKER/LOCATER V6.22.4.0                                                  07/21/2026  18:51:08  PAGE 18


  C:1D9AH         PUBLIC        TIMR0_IRQHandler
  -------         PROC          TIMER0_INIT
  C:277CH         LINE#         12
  C:277CH         LINE#         13
  C:277CH         LINE#         14
  C:277FH         LINE#         15
  C:2781H         LINE#         17
  C:2784H         LINE#         18
  C:2789H         LINE#         19
  C:278DH         LINE#         20
  C:2792H         LINE#         21
  C:2796H         LINE#         22
  -------         ENDPROC       TIMER0_INIT
  -------         PROC          TIMR0_IRQHANDLER
  C:1D9AH         LINE#         26
  C:1DB7H         LINE#         29
  C:1DB7H         LINE#         34
  C:1DBDH         LINE#         35
  C:1DBDH         LINE#         36
  C:1DC1H         LINE#         42
  C:1DC7H         LINE#         43
  C:1DCAH         LINE#         45
  C:1DCDH         LINE#         46
  C:1DD0H         LINE#         49
  C:1DD3H         LINE#         50
  C:1DD6H         LINE#         51
  C:1DD9H         LINE#         53
  C:1DDCH         LINE#         54
  C:1DDFH         LINE#         57
  C:1DE2H         LINE#         58
  C:1DE5H         LINE#         60
  C:1DE8H         LINE#         62
  C:1DEBH         LINE#         68
  C:1DEBH         LINE#         71
  C:1DEBH         LINE#         72
  -------         ENDPROC       TIMR0_IRQHANDLER
  -------         ENDMOD        TIMER0

  -------         MODULE        TIMER1
  C:0000H         SYMBOL        _ICE_DUMMY_
  D:00A8H         PUBLIC        IE0
  D:00A9H         PUBLIC        IE1
  D:00AAH         PUBLIC        IE2
  D:00ABH         PUBLIC        IE3
  B:00A8H.7       PUBLIC        IE_EA
  D:00B8H         PUBLIC        IP0
  D:00B1H         PUBLIC        IP1
  D:00B2H         PUBLIC        IP2
  D:00B3H         PUBLIC        IP3
  D:00B4H         PUBLIC        IP4
  D:00B5H         PUBLIC        IP5
  D:00B6H         PUBLIC        IP6
  D:00B7H         PUBLIC        IP7
  D:00D1H         PUBLIC        TMR_ALLCON
  C:2797H         PUBLIC        timer1_init
  C:220DH         PUBLIC        TIMR1_IRQHandler
  -------         PROC          TIMER1_INIT
BL51 BANKED LINKER/LOCATER V6.22.4.0                                                  07/21/2026  18:51:08  PAGE 19


  C:2797H         LINE#         9
  C:2797H         LINE#         10
  C:2797H         LINE#         12
  C:279AH         LINE#         13
  C:279CH         LINE#         15
  C:279FH         LINE#         16
  C:27A4H         LINE#         17
  C:27A8H         LINE#         18
  C:27ADH         LINE#         19
  C:27B1H         LINE#         23
  -------         ENDPROC       TIMER1_INIT
  -------         PROC          TIMR1_IRQHANDLER
  C:220DH         LINE#         27
  C:222AH         LINE#         30
  C:222AH         LINE#         34
  C:2230H         LINE#         35
  C:2230H         LINE#         36
  C:2234H         LINE#         39
  C:2237H         LINE#         40
  C:223AH         LINE#         41
  C:223AH         LINE#         44
  C:223AH         LINE#         45
  -------         ENDPROC       TIMR1_IRQHANDLER
  -------         ENDMOD        TIMER1

  -------         MODULE        UART0
  C:0000H         SYMBOL        _ICE_DUMMY_
  D:00A8H         PUBLIC        IE0
  D:00A9H         PUBLIC        IE1
  D:00AAH         PUBLIC        IE2
  D:00ABH         PUBLIC        IE3
  B:00A8H.7       PUBLIC        IE_EA
  D:00B8H         PUBLIC        IP0
  D:00B1H         PUBLIC        IP1
  D:00B2H         PUBLIC        IP2
  D:00B3H         PUBLIC        IP3
  D:00B4H         PUBLIC        IP4
  D:00B5H         PUBLIC        IP5
  D:00B6H         PUBLIC        IP6
  D:00B7H         PUBLIC        IP7
  D:00D2H         PUBLIC        UART0_CON0
  D:00D4H         PUBLIC        UART0_STA
  D:00D5H         PUBLIC        UART0_BAUD0
  D:00D6H         PUBLIC        UART0_BAUD1
  D:00D7H         PUBLIC        UART0_DATA
  C:2424H         PUBLIC        uart0_init
  C:2982H         PUBLIC        _uart0_sendbyte
  C:26B1H         PUBLIC        _uart0_sendbuf
  C:2970H         PUBLIC        uart0_rxbuffer_get_count
  C:2369H         PUBLIC        uart0_rxbuffer_get_byte
  X:60DBH         PUBLIC        uart0_rx_buffer
  C:2255H         SYMBOL        _uart0_rxbuffer_put_byte
  C:24CDH         PUBLIC        UART0_IRQHandler
  C:29AAH         SYMBOL        Com0047
  C:29AAH         SYMBOL        L?0072
  C:29AAH         SYMBOL        L?0073
  -------         PROC          COM0047
BL51 BANKED LINKER/LOCATER V6.22.4.0                                                  07/21/2026  18:51:08  PAGE 20


  -------         ENDPROC       COM0047
  -------         PROC          UART0_INIT
  C:2424H         LINE#         17
  C:2424H         LINE#         18
  C:2424H         LINE#         19
  C:242AH         LINE#         20
  C:242EH         LINE#         21
  C:2435H         LINE#         23
  C:243BH         LINE#         24
  C:2441H         LINE#         25
  C:2447H         LINE#         27
  C:244AH         LINE#         28
  C:244DH         LINE#         29
  C:2450H         LINE#         33
  C:2458H         LINE#         34
  C:245BH         LINE#         35
  C:245DH         LINE#         36
  -------         ENDPROC       UART0_INIT
  -------         PROC          _UART0_SENDBYTE
  D:0007H         SYMBOL        byte
  C:2982H         LINE#         39
  C:2982H         LINE#         40
  C:2982H         LINE#         41
  C:2987H         LINE#         44
  C:2989H         LINE#         48
  -------         ENDPROC       _UART0_SENDBYTE
  -------         PROC          _UART0_SENDBUF
  X:61E5H         SYMBOL        buf
  D:0005H         SYMBOL        len
  -------         DO            
  D:0006H         SYMBOL        i
  -------         ENDDO         
  C:26B1H         LINE#         50
  C:26B7H         LINE#         51
  C:26B7H         LINE#         52
  C:26B9H         LINE#         53
  C:26BEH         LINE#         54
  C:26BEH         LINE#         55
  C:26D0H         LINE#         56
  C:26D3H         LINE#         57
  -------         ENDPROC       _UART0_SENDBUF
  -------         PROC          UART0_RXBUFFER_GET_COUNT
  C:2970H         LINE#         60
  C:2970H         LINE#         61
  C:2970H         LINE#         62
  C:2978H         LINE#         63
  -------         ENDPROC       UART0_RXBUFFER_GET_COUNT
  -------         PROC          UART0_RXBUFFER_GET_BYTE
  -------         DO            
  D:0007H         SYMBOL        rxbyte
  -------         ENDDO         
  C:2369H         LINE#         66
  C:2369H         LINE#         67
  C:2369H         LINE#         70
  C:2373H         LINE#         71
  C:2373H         LINE#         73
  C:2375H         LINE#         74
BL51 BANKED LINKER/LOCATER V6.22.4.0                                                  07/21/2026  18:51:08  PAGE 21


  C:2375H         LINE#         80
  C:237BH         LINE#         81
  C:238AH         LINE#         82
  C:238AH         LINE#         83
  C:238EH         LINE#         84
  C:238EH         LINE#         85
  C:23A0H         LINE#         87
  C:23AAH         LINE#         89
  C:23AAH         LINE#         90
  -------         ENDPROC       UART0_RXBUFFER_GET_BYTE
  -------         PROC          _UART0_RXBUFFER_PUT_BYTE
  D:0007H         SYMBOL        byte
  C:2255H         LINE#         92
  C:2255H         LINE#         93
  C:2255H         LINE#         100
  C:225BH         LINE#         101
  C:226AH         LINE#         102
  C:226AH         LINE#         103
  C:226EH         LINE#         104
  C:226EH         LINE#         105
  C:2280H         LINE#         107
  C:2286H         LINE#         108
  C:2295H         LINE#         109
  C:2295H         LINE#         110
  C:229BH         LINE#         111
  C:229BH         LINE#         112
  -------         ENDPROC       _UART0_RXBUFFER_PUT_BYTE
  -------         PROC          UART0_IRQHANDLER
  -------         DO            
  X:61F3H         SYMBOL        recv_byte
  -------         ENDDO         
  C:24CDH         LINE#         115
  C:24E0H         LINE#         118
  C:24E0H         LINE#         121
  C:24E5H         LINE#         122
  C:24E5H         LINE#         123
  C:24EBH         LINE#         124
  C:24F0H         LINE#         127
  C:24F0H         LINE#         129
  C:24F0H         LINE#         130
  -------         ENDPROC       UART0_IRQHANDLER
  -------         ENDMOD        UART0

  -------         MODULE        MAIN
  C:0000H         SYMBOL        _ICE_DUMMY_
  D:00D9H         PUBLIC        WDT_KEY
  C:273AH         PUBLIC        user_init
  C:1FEEH         PUBLIC        main
  -------         PROC          USER_INIT
  C:273AH         LINE#         37
  C:273AH         LINE#         38
  C:273AH         LINE#         39
  C:273DH         LINE#         40
  C:2740H         LINE#         41
  C:2743H         LINE#         42
  C:2746H         LINE#         43
  C:2749H         LINE#         44
BL51 BANKED LINKER/LOCATER V6.22.4.0                                                  07/21/2026  18:51:08  PAGE 22


  C:274CH         LINE#         46
  C:274FH         LINE#         47
  C:2752H         LINE#         48
  C:2755H         LINE#         51
  C:2758H         LINE#         52
  -------         ENDPROC       USER_INIT
  -------         PROC          MAIN
  C:1FEEH         LINE#         60
  C:1FEEH         LINE#         61
  C:1FEEH         LINE#         63
  C:1FF1H         LINE#         64
  C:1FF4H         LINE#         67
  C:1FF7H         LINE#         68
  C:1FFEH         LINE#         69
  C:2001H         LINE#         72
  C:2006H         LINE#         73
  C:2008H         LINE#         74
  C:200BH         LINE#         75
  C:200DH         LINE#         76
  C:2010H         LINE#         77
  C:2012H         LINE#         78
  C:2015H         LINE#         79
  C:2017H         LINE#         81
  C:201AH         LINE#         82
  C:2021H         LINE#         84
  C:2021H         LINE#         85
  C:2021H         LINE#         86
  C:202AH         LINE#         87
  C:202DH         LINE#         88
  C:2030H         LINE#         90
  C:2033H         LINE#         92
  C:2036H         LINE#         93
  C:2039H         LINE#         94
  C:203CH         LINE#         96
  C:203FH         LINE#         102
  -------         ENDPROC       MAIN
  -------         ENDMOD        MAIN

  -------         MODULE        UART_DATA_HANDLE
  C:0000H         SYMBOL        _ICE_DUMMY_
  C:28EEH         PUBLIC        uart_receiver_reset
  C:000FH         PUBLIC        uart_receiver_timeout_add
  C:26F6H         PUBLIC        uart_receiver_process_checksum
  C:1726H         PUBLIC        _uart_receiver_process_byte
  C:28C9H         PUBLIC        uart_receiver_timeout_handler
  C:1C37H         PUBLIC        uart_data_handle
  C:229CH         PUBLIC        _uart_data_send_cmd
  X:61C2H         SYMBOL        uart_receiver
  C:298AH         SYMBOL        _?ix1000
  C:2846H         SYMBOL        Com0038
  C:2846H         SYMBOL        L?0057
  C:2846H         SYMBOL        L?0058
  -------         PROC          COM0038
  -------         ENDPROC       COM0038
  -------         PROC          UART_RECEIVER_RESET
  C:28EEH         LINE#         13
  C:28EEH         LINE#         14
BL51 BANKED LINKER/LOCATER V6.22.4.0                                                  07/21/2026  18:51:08  PAGE 23


  C:28EEH         LINE#         16
  C:28F3H         LINE#         17
  C:28F7H         LINE#         18
  C:28FBH         LINE#         19
  C:28FFH         LINE#         20
  -------         ENDPROC       UART_RECEIVER_RESET
  -------         PROC          UART_RECEIVER_TIMEOUT_ADD
  C:000FH         LINE#         26
  C:000FH         LINE#         27
  C:000FH         LINE#         28
  C:0015H         LINE#         29
  C:0015H         LINE#         30
  C:001DH         LINE#         31
  C:001DH         LINE#         32
  -------         ENDPROC       UART_RECEIVER_TIMEOUT_ADD
  -------         PROC          UART_RECEIVER_PROCESS_CHECKSUM
  -------         DO            
  D:0006H         SYMBOL        i
  D:0007H         SYMBOL        check_sum
  -------         ENDDO         
  C:26F6H         LINE#         39
  C:26F6H         LINE#         40
  C:26F6H         LINE#         42
  C:26F8H         LINE#         43
  C:26F9H         LINE#         44
  C:26F9H         LINE#         45
  C:2706H         LINE#         46
  C:270BH         LINE#         48
  C:2712H         LINE#         49
  C:2712H         LINE#         50
  C:2715H         LINE#         51
  C:2715H         LINE#         53
  C:2715H         LINE#         60
  C:2717H         LINE#         61
  C:2717H         LINE#         62
  -------         ENDPROC       UART_RECEIVER_PROCESS_CHECKSUM
  -------         PROC          _UART_RECEIVER_PROCESS_BYTE
  D:0005H         SYMBOL        byte
  C:1726H         LINE#         71
  C:1728H         LINE#         72
  C:1728H         LINE#         74
  C:174BH         LINE#         75
  C:174BH         LINE#         76
  C:174BH         LINE#         77
  C:174FH         LINE#         78
  C:174FH         LINE#         79
  C:174FH         LINE#         80
  C:1754H         LINE#         81
  C:1757H         LINE#         82
  C:1757H         LINE#         84
  C:1757H         LINE#         85
  C:175AH         LINE#         86
  C:175AH         LINE#         87
  C:175AH         LINE#         89
  C:175AH         LINE#         90
  C:175EH         LINE#         91
  C:175EH         LINE#         92
BL51 BANKED LINKER/LOCATER V6.22.4.0                                                  07/21/2026  18:51:08  PAGE 24


  C:175EH         LINE#         93
  C:1763H         LINE#         94
  C:1766H         LINE#         95
  C:1766H         LINE#         97
  C:1766H         LINE#         99
  C:1769H         LINE#         100
  C:1769H         LINE#         101
  C:1769H         LINE#         103
  C:1769H         LINE#         104
  C:176CH         LINE#         105
  C:176CH         LINE#         106
  C:176CH         LINE#         107
  C:1771H         LINE#         108
  C:1774H         LINE#         109
  C:1774H         LINE#         111
  C:1774H         LINE#         112
  C:1777H         LINE#         113
  C:1777H         LINE#         114
  C:1777H         LINE#         116
  C:1777H         LINE#         118
  C:1777H         LINE#         119
  C:177CH         LINE#         120
  C:177EH         LINE#         121
  C:177EH         LINE#         123
  C:177EH         LINE#         125
  C:177EH         LINE#         126
  C:1783H         LINE#         127
  C:1785H         LINE#         128
  C:1785H         LINE#         130
  C:1785H         LINE#         131
  C:1788H         LINE#         132
  C:1788H         LINE#         133
  C:1788H         LINE#         134
  C:178DH         LINE#         135
  C:178FH         LINE#         136
  C:178FH         LINE#         138
  C:178FH         LINE#         139
  C:1792H         LINE#         140
  C:1792H         LINE#         141
  C:1792H         LINE#         143
  C:1792H         LINE#         145
  C:1792H         LINE#         146
  C:1798H         LINE#         147
  C:179EH         LINE#         148
  C:179EH         LINE#         150
  C:17A1H         LINE#         151
  C:17A1H         LINE#         153
  C:17A1H         LINE#         154
  C:17A4H         LINE#         155
  C:17A4H         LINE#         156
  C:17A4H         LINE#         158
  C:17A4H         LINE#         159
  C:17A8H         LINE#         160
  C:17A8H         LINE#         161
  C:17BCH         LINE#         162
  C:17C2H         LINE#         163
  C:17C5H         LINE#         164
BL51 BANKED LINKER/LOCATER V6.22.4.0                                                  07/21/2026  18:51:08  PAGE 25


  C:17C5H         LINE#         166
  C:17C5H         LINE#         167
  C:17C8H         LINE#         168
  C:17C8H         LINE#         169
  C:17C8H         LINE#         171
  C:17C8H         LINE#         172
  C:17C8H         LINE#         173
  C:17C8H         LINE#         175
  C:17CAH         LINE#         176
  -------         ENDPROC       _UART_RECEIVER_PROCESS_BYTE
  -------         PROC          UART_RECEIVER_TIMEOUT_HANDLER
  C:28C9H         LINE#         179
  C:28C9H         LINE#         180
  C:28C9H         LINE#         185
  C:28D8H         LINE#         186
  C:28D8H         LINE#         200
  C:28DBH         LINE#         201
  C:28DBH         LINE#         202
  -------         ENDPROC       UART_RECEIVER_TIMEOUT_HANDLER
  -------         PROC          UART_DATA_HANDLE
  -------         DO            
  D:0004H         SYMBOL        recv_byte
  X:61C1H         SYMBOL        initialized
  -------         ENDDO         
  C:1C37H         LINE#         203
  C:1C37H         LINE#         204
  C:1C37H         LINE#         212
  C:1C3DH         LINE#         213
  C:1C3DH         LINE#         214
  C:1C40H         LINE#         215
  C:1C46H         LINE#         216
  C:1C46H         LINE#         221
  C:1C4CH         LINE#         222
  C:1C4CH         LINE#         223
  C:1C4FH         LINE#         224
  C:1C4FH         LINE#         233
  C:1C4FH         LINE#         234
  C:1C4FH         LINE#         235
  C:1C63H         LINE#         238
  C:1C63H         LINE#         252
  C:1C63H         LINE#         253
  C:1C63H         LINE#         255
  C:1C68H         LINE#         258
  C:1C6EH         LINE#         259
  C:1C73H         LINE#         262
  C:1C79H         LINE#         263
  C:1C79H         LINE#         276
  C:1C7CH         LINE#         277
  C:1C7CH         LINE#         278
  C:1C7EH         LINE#         308
  C:1C8AH         LINE#         310
  C:1C8AH         LINE#         312
  C:1C8AH         LINE#         332
  C:1C9AH         LINE#         333
  C:1C9AH         LINE#         334
  C:1C9AH         LINE#         336
  C:1C9FH         LINE#         337
BL51 BANKED LINKER/LOCATER V6.22.4.0                                                  07/21/2026  18:51:08  PAGE 26


  C:1CA1H         LINE#         338
  C:1CA1H         LINE#         340
  C:1CA7H         LINE#         341
  C:1CA9H         LINE#         342
  C:1CA9H         LINE#         350
  C:1CACH         LINE#         351
  C:1CACH         LINE#         353
  C:1CACH         LINE#         357
  C:1CACH         LINE#         358
  C:1CACH         LINE#         361
  C:1CAFH         LINE#         362
  -------         ENDPROC       UART_DATA_HANDLE
  -------         PROC          _UART_DATA_SEND_CMD
  X:61DCH         SYMBOL        cmd
  -------         DO            
  X:61DDH         SYMBOL        buf
  -------         ENDDO         
  C:229CH         LINE#         366
  C:22A1H         LINE#         367
  C:22A1H         LINE#         368
  C:22B4H         LINE#         379
  C:22BDH         LINE#         380
  C:22D6H         LINE#         382
  -------         ENDPROC       _UART_DATA_SEND_CMD
  -------         ENDMOD        UART_DATA_HANDLE

  -------         MODULE        KEY_DRIVER
  C:0000H         SYMBOL        _ICE_DUMMY_
  C:0B86H         PUBLIC        _key_driver_scan
  X:6236H         SYMBOL        is_key_active
  X:6237H         PUBLIC        scan_para
  C:275BH         SYMBOL        Com0021
  C:275BH         SYMBOL        L?0034
  C:275EH         SYMBOL        L?0035
  C:275FH         SYMBOL        L?0036
  C:2765H         SYMBOL        L?0037
  C:2768H         SYMBOL        L?0038
  C:276CH         SYMBOL        L?0039
  C:2772H         SYMBOL        L?0040
  C:2775H         SYMBOL        L?0041
  -------         PROC          COM0021
  -------         ENDPROC       COM0021
  -------         PROC          _KEY_DRIVER_SCAN
  D:0001H         SYMBOL        _scan_para
  -------         DO            
  X:61DBH         SYMBOL        key_event
  D:0007H         SYMBOL        cur_key_value
  X:61DCH         SYMBOL        key_value
  C:0CEEH         SYMBOL        _notify
  C:0D0EH         SYMBOL        _scan_end
  -------         ENDDO         
  C:0B86H         LINE#         17
  C:0B86H         LINE#         19
  C:0B86H         LINE#         24
  C:0B8BH         LINE#         25
  C:0B8DH         LINE#         26
  C:0B91H         LINE#         30
BL51 BANKED LINKER/LOCATER V6.22.4.0                                                  07/21/2026  18:51:08  PAGE 27


  C:0B97H         LINE#         33
  C:0BAAH         LINE#         34
  C:0BAAH         LINE#         36
  C:0BAAH         LINE#         38
  C:0BB4H         LINE#         40
  C:0BBDH         LINE#         46
  C:0BC1H         LINE#         47
  C:0BC1H         LINE#         48
  C:0BC7H         LINE#         49
  C:0BC9H         LINE#         50
  C:0BCFH         LINE#         51
  C:0BCFH         LINE#         52
  C:0BD2H         LINE#         53
  C:0BD2H         LINE#         56
  C:0BE6H         LINE#         57
  C:0BE6H         LINE#         59
  C:0BEDH         LINE#         60
  C:0BF3H         LINE#         62
  C:0BF3H         LINE#         65
  C:0C04H         LINE#         66
  C:0C04H         LINE#         67
  C:0C0FH         LINE#         69
  C:0C0FH         LINE#         72
  C:0C1BH         LINE#         73
  C:0C1BH         LINE#         80
  C:0C1FH         LINE#         81
  C:0C1FH         LINE#         82
  C:0C26H         LINE#         83
  C:0C26H         LINE#         84
  C:0C28H         LINE#         85
  C:0C2EH         LINE#         86
  C:0C30H         LINE#         88
  C:0C30H         LINE#         91
  C:0C30H         LINE#         92
  C:0C38H         LINE#         93
  C:0C38H         LINE#         94
  C:0C3BH         LINE#         96
  C:0C3BH         LINE#         101
  C:0C43H         LINE#         102
  C:0C4FH         LINE#         103
  C:0C4FH         LINE#         104
  C:0C54H         LINE#         105
  C:0C58H         LINE#         106
  C:0C5BH         LINE#         108
  C:0C5BH         LINE#         109
  C:0C61H         LINE#         110
  C:0C61H         LINE#         111
  C:0C61H         LINE#         113
  C:0C63H         LINE#         118
  C:0C63H         LINE#         120
  C:0C63H         LINE#         125
  C:0C67H         LINE#         126
  C:0C67H         LINE#         128
  C:0C78H         LINE#         129
  C:0C78H         LINE#         133
  C:0C89H         LINE#         134
  C:0C89H         LINE#         154
BL51 BANKED LINKER/LOCATER V6.22.4.0                                                  07/21/2026  18:51:08  PAGE 28


  C:0C89H         LINE#         155
  C:0C8BH         LINE#         157
  C:0C8BH         LINE#         158
  C:0C98H         LINE#         160
  C:0C9AH         LINE#         162
  C:0C9AH         LINE#         164
  C:0C9AH         LINE#         165
  C:0CA5H         LINE#         166
  C:0CA8H         LINE#         168
  C:0CA8H         LINE#         169
  C:0CA8H         LINE#         171
  C:0CA8H         LINE#         172
  C:0CA8H         LINE#         174
  C:0CA8H         LINE#         175
  C:0CA8H         LINE#         177
  C:0CA8H         LINE#         179
  C:0CB3H         LINE#         180
  C:0CB3H         LINE#         181
  C:0CBBH         LINE#         182
  C:0CBBH         LINE#         186
  C:0CC1H         LINE#         187
  C:0CC1H         LINE#         188
  C:0CC7H         LINE#         193
  C:0CC9H         LINE#         194
  C:0CD5H         LINE#         195
  C:0CD5H         LINE#         196
  C:0CDAH         LINE#         197
  C:0CE9H         LINE#         199
  C:0CE9H         LINE#         201
  C:0CE9H         LINE#         202
  C:0CE9H         LINE#         204
  C:0CE9H         LINE#         207
  C:0CEEH         LINE#         208
  C:0CEEH         LINE#         210
  C:0CEEH         LINE#         211
  C:0CEEH         LINE#         213
  C:0CEEH         LINE#         216
  C:0CEEH         LINE#         218
  C:0CEEH         LINE#         219
  C:0CF2H         LINE#         220
  C:0CFAH         LINE#         222
  C:0D04H         LINE#         223
  C:0D0EH         LINE#         226
  C:0D0EH         LINE#         235
  C:0D0EH         LINE#         237
  C:0D0EH         LINE#         238
  C:0D18H         LINE#         241
  -------         ENDPROC       _KEY_DRIVER_SCAN
  -------         ENDMOD        KEY_DRIVER

  -------         MODULE        AD_KEY
  C:0000H         SYMBOL        _ICE_DUMMY_
  X:6163H         PUBLIC        ad_key_para
  C:17CBH         PUBLIC        ad_key_handle
  X:6176H         SYMBOL        ad_key_scan_table
  X:6186H         SYMBOL        ad_key_event_table
  C:2501H         PUBLIC        ad_key_get_key_val
BL51 BANKED LINKER/LOCATER V6.22.4.0                                                  07/21/2026  18:51:08  PAGE 29


  C:20E2H         SYMBOL        _ad_key_val_to_ad_key_index
  C:2179H         SYMBOL        _ad_key_get_event
  C:2911H         SYMBOL        Com0036
  C:2911H         SYMBOL        L?0055
  -------         PROC          COM0036
  -------         ENDPROC       COM0036
  -------         PROC          _AD_KEY_VAL_TO_AD_KEY_INDEX
  D:0006H         SYMBOL        ad_key_val
  -------         DO            
  D:0005H         SYMBOL        i
  X:61DCH         SYMBOL        ad_key_index
  -------         ENDDO         
  C:20E2H         LINE#         55
  C:20E2H         LINE#         56
  C:20E2H         LINE#         57
  C:20E4H         LINE#         58
  C:20ECH         LINE#         61
  C:20ECH         LINE#         62
  C:20ECH         LINE#         63
  C:2104H         LINE#         64
  C:2104H         LINE#         65
  C:211EH         LINE#         66
  C:2120H         LINE#         67
  C:2120H         LINE#         68
  C:2125H         LINE#         70
  C:212DH         LINE#         71
  -------         ENDPROC       _AD_KEY_VAL_TO_AD_KEY_INDEX
  -------         PROC          _AD_KEY_GET_EVENT
  D:0007H         SYMBOL        key_val
  D:0005H         SYMBOL        key_event
  -------         DO            
  D:0006H         SYMBOL        ret_key_event
  D:0004H         SYMBOL        key_event_index
  D:0003H         SYMBOL        i
  -------         ENDDO         
  C:2179H         LINE#         81
  C:2179H         LINE#         82
  C:2179H         LINE#         83
  C:217BH         LINE#         84
  C:217CH         LINE#         85
  C:217DH         LINE#         88
  C:2181H         LINE#         89
  C:2181H         LINE#         90
  C:2182H         LINE#         91
  C:2184H         LINE#         92
  C:2188H         LINE#         93
  C:2188H         LINE#         94
  C:218AH         LINE#         95
  C:218CH         LINE#         96
  C:2190H         LINE#         97
  C:2190H         LINE#         98
  C:2192H         LINE#         99
  C:2194H         LINE#         100
  C:2198H         LINE#         101
  C:2198H         LINE#         102
  C:219AH         LINE#         103
  C:219CH         LINE#         105
BL51 BANKED LINKER/LOCATER V6.22.4.0                                                  07/21/2026  18:51:08  PAGE 30


  C:219CH         LINE#         106
  C:219FH         LINE#         107
  C:219FH         LINE#         109
  C:21A5H         LINE#         110
  C:21A5H         LINE#         111
  C:21ACH         LINE#         112
  C:21ACH         LINE#         113
  C:21BBH         LINE#         114
  C:21BDH         LINE#         115
  C:21BDH         LINE#         116
  C:21C0H         LINE#         118
  C:21C2H         LINE#         119
  -------         ENDPROC       _AD_KEY_GET_EVENT
  -------         PROC          AD_KEY_GET_KEY_VAL
  -------         DO            
  X:6161H         SYMBOL        val
  X:61DBH         SYMBOL        ret
  -------         ENDDO         
  C:2501H         LINE#         132
  C:2501H         LINE#         133
  C:2501H         LINE#         135
  C:2507H         LINE#         138
  C:250FH         LINE#         139
  C:250FH         LINE#         140
  C:2514H         LINE#         141
  C:2521H         LINE#         144
  C:2521H         LINE#         146
  C:2531H         LINE#         147
  C:2533H         LINE#         148
  -------         ENDPROC       AD_KEY_GET_KEY_VAL
  -------         PROC          AD_KEY_HANDLE
  -------         DO            
  X:61DBH         SYMBOL        ad_key_event
  -------         ENDDO         
  C:17CBH         LINE#         150
  C:17CBH         LINE#         151
  C:17CBH         LINE#         152
  C:17D0H         LINE#         154
  C:17D9H         LINE#         155
  C:17D9H         LINE#         157
  C:17D9H         LINE#         159
  C:17E6H         LINE#         160
  C:17EBH         LINE#         161
  C:17EDH         LINE#         164
  C:17FCH         LINE#         165
  C:17FCH         LINE#         175
  C:1802H         LINE#         177
  C:1802H         LINE#         179
  C:1828H         LINE#         180
  C:1828H         LINE#         183
  C:1828H         LINE#         187
  C:182BH         LINE#         188
  C:182BH         LINE#         190
  C:182BH         LINE#         194
  C:182BH         LINE#         196
  C:182BH         LINE#         201
  C:182BH         LINE#         203
BL51 BANKED LINKER/LOCATER V6.22.4.0                                                  07/21/2026  18:51:08  PAGE 31


  C:182BH         LINE#         207
  C:182BH         LINE#         211
  C:182BH         LINE#         215
  C:182DH         LINE#         216
  C:182FH         LINE#         218
  C:182FH         LINE#         223
  C:1831H         LINE#         224
  C:1833H         LINE#         226
  C:1833H         LINE#         231
  C:1835H         LINE#         232
  C:1837H         LINE#         234
  C:1837H         LINE#         238
  C:1837H         LINE#         243
  C:1837H         LINE#         248
  C:1839H         LINE#         249
  C:183BH         LINE#         251
  C:183BH         LINE#         257
  C:183DH         LINE#         258
  C:183FH         LINE#         260
  C:183FH         LINE#         266
  C:1841H         LINE#         267
  C:1843H         LINE#         269
  C:1843H         LINE#         273
  C:1843H         LINE#         277
  C:1843H         LINE#         283
  C:1849H         LINE#         284
  C:1849H         LINE#         285
  C:184BH         LINE#         286
  C:184DH         LINE#         287
  C:1854H         LINE#         288
  C:1854H         LINE#         289
  C:1859H         LINE#         290
  C:1859H         LINE#         291
  C:1859H         LINE#         293
  C:1859H         LINE#         299
  C:185FH         LINE#         300
  C:185FH         LINE#         303
  C:1862H         LINE#         304
  C:1862H         LINE#         306
  C:1862H         LINE#         311
  C:1865H         LINE#         312
  C:1865H         LINE#         313
  C:1865H         LINE#         315
  C:1865H         LINE#         319
  C:1865H         LINE#         321
  C:1865H         LINE#         325
  C:1865H         LINE#         327
  C:1865H         LINE#         328
  C:1865H         LINE#         329
  C:1865H         LINE#         330
  -------         ENDPROC       AD_KEY_HANDLE
  -------         ENDMOD        AD_KEY

  -------         MODULE        USER_TEST
  C:0000H         SYMBOL        _ICE_DUMMY_
  -------         ENDMOD        USER_TEST

BL51 BANKED LINKER/LOCATER V6.22.4.0                                                  07/21/2026  18:51:08  PAGE 32


  -------         MODULE        LED
  C:0000H         SYMBOL        _ICE_DUMMY_
  B:0080H.0       PUBLIC        P00
  B:0080H.1       PUBLIC        P01
  B:0080H.2       PUBLIC        P02
  B:0080H.5       PUBLIC        P05
  B:0080H.6       PUBLIC        P06
  B:0090H.3       PUBLIC        P13
  B:00A0H.7       PUBLIC        P27
  B:00B0H.0       PUBLIC        P30
  X:6219H         PUBLIC        led_ctl
  C:2094H         PUBLIC        led_init
  C:292FH         PUBLIC        led_yellow_on
  C:2992H         PUBLIC        led_yellow_off
  C:293CH         PUBLIC        led_white_on
  C:299AH         PUBLIC        led_white_off
  C:2920H         PUBLIC        led_ctl_init
  C:2618H         PUBLIC        led_status_switch
  C:1D26H         PUBLIC        _led_status_set
  C:13EFH         PUBLIC        led_red_blue_flash_1ms_isr
  C:11D3H         PUBLIC        led_slow_adjust_isr
  C:18FCH         SYMBOL        Com0050
  C:18FCH         SYMBOL        L?0081
  C:1908H         SYMBOL        L?0082
  C:1916H         SYMBOL        L?0083
  C:1917H         SYMBOL        L?0084
  C:191CH         SYMBOL        L?0085
  C:1923H         SYMBOL        L?0086
  C:1926H         SYMBOL        L?0087
  C:1929H         SYMBOL        L?0088
  C:1930H         SYMBOL        L?0089
  C:1930H         SYMBOL        L?0090
  C:193DH         SYMBOL        L?0092
  C:194EH         SYMBOL        L?0093
  C:195DH         SYMBOL        L?0094
  C:195DH         SYMBOL        L?0095
  C:1966H         SYMBOL        L?0096
  C:1971H         SYMBOL        L?0097
  C:1972H         SYMBOL        L?0098
  C:1979H         SYMBOL        L?0099
  C:1979H         SYMBOL        L?0100
  C:197FH         SYMBOL        L?0101
  C:1988H         SYMBOL        L?0102
  C:1988H         SYMBOL        L?0103
  -------         PROC          COM0050
  -------         ENDPROC       COM0050
  -------         PROC          LED_INIT
  C:2094H         LINE#         14
  C:2094H         LINE#         15
  C:2094H         LINE#         17
  C:209AH         LINE#         18
  C:209EH         LINE#         19
  C:20A0H         LINE#         20
  C:20A5H         LINE#         23
  C:20ABH         LINE#         24
  C:20AFH         LINE#         25
  C:20B1H         LINE#         26
BL51 BANKED LINKER/LOCATER V6.22.4.0                                                  07/21/2026  18:51:08  PAGE 33


  C:20B4H         LINE#         29
  C:20B4H         LINE#         30
  C:20B7H         LINE#         31
  C:20B9H         LINE#         32
  C:20BEH         LINE#         35
  C:20C3H         LINE#         36
  C:20C7H         LINE#         37
  C:20C9H         LINE#         38
  C:20CCH         LINE#         41
  C:20CCH         LINE#         42
  C:20CFH         LINE#         43
  C:20D1H         LINE#         44
  C:20D4H         LINE#         47
  C:20D8H         LINE#         48
  C:20DCH         LINE#         49
  C:20DEH         LINE#         50
  C:20E1H         LINE#         51
  -------         ENDPROC       LED_INIT
  -------         PROC          LED_CTL_INIT
  C:2920H         LINE#         53
  C:2920H         LINE#         54
  C:2920H         LINE#         63
  -------         ENDPROC       LED_CTL_INIT
  -------         PROC          LED_YELLOW_ON
  C:292FH         LINE#         104
  C:292FH         LINE#         105
  C:292FH         LINE#         107
  C:2935H         LINE#         109
  C:293BH         LINE#         110
  -------         ENDPROC       LED_YELLOW_ON
  -------         PROC          LED_YELLOW_OFF
  C:2992H         LINE#         121
  C:2992H         LINE#         122
  C:2992H         LINE#         123
  C:2994H         LINE#         124
  C:2999H         LINE#         125
  -------         ENDPROC       LED_YELLOW_OFF
  -------         PROC          LED_WHITE_ON
  C:293CH         LINE#         127
  C:293CH         LINE#         128
  C:293CH         LINE#         130
  C:2942H         LINE#         132
  C:2948H         LINE#         133
  -------         ENDPROC       LED_WHITE_ON
  -------         PROC          LED_WHITE_OFF
  C:299AH         LINE#         144
  C:299AH         LINE#         145
  C:299AH         LINE#         146
  C:299CH         LINE#         147
  C:29A1H         LINE#         148
  -------         ENDPROC       LED_WHITE_OFF
  -------         PROC          LED_STATUS_SWITCH
  C:2618H         LINE#         150
  C:2618H         LINE#         151
  C:2618H         LINE#         153
  C:262CH         LINE#         154
  C:262CH         LINE#         155
BL51 BANKED LINKER/LOCATER V6.22.4.0                                                  07/21/2026  18:51:08  PAGE 34


  C:262CH         LINE#         159
  C:262EH         LINE#         160
  C:2630H         LINE#         161
  C:2630H         LINE#         166
  C:2632H         LINE#         167
  C:2634H         LINE#         168
  C:2634H         LINE#         172
  C:2636H         LINE#         173
  C:2638H         LINE#         174
  C:2638H         LINE#         180
  C:263AH         LINE#         181
  C:263CH         LINE#         182
  C:263CH         LINE#         193
  C:2641H         LINE#         194
  C:2641H         LINE#         195
  C:2641H         LINE#         196
  -------         ENDPROC       LED_STATUS_SWITCH
  -------         PROC          _LED_STATUS_SET
  X:61DCH         SYMBOL        status
  C:1D26H         LINE#         199
  C:1D2BH         LINE#         200
  C:1D2BH         LINE#         202
  C:1D35H         LINE#         203
  C:1D3CH         LINE#         205
  C:1D40H         LINE#         207
  C:1D54H         LINE#         208
  C:1D54H         LINE#         209
  C:1D54H         LINE#         210
  C:1D57H         LINE#         211
  C:1D5AH         LINE#         212
  C:1D5CH         LINE#         213
  C:1D5EH         LINE#         214
  C:1D60H         LINE#         215
  C:1D60H         LINE#         216
  C:1D63H         LINE#         217
  C:1D65H         LINE#         218
  C:1D67H         LINE#         220
  C:1D67H         LINE#         221
  C:1D69H         LINE#         222
  C:1D69H         LINE#         223
  C:1D6CH         LINE#         224
  C:1D6EH         LINE#         225
  C:1D70H         LINE#         227
  C:1D73H         LINE#         228
  C:1D75H         LINE#         230
  C:1D75H         LINE#         231
  C:1D77H         LINE#         232
  C:1D79H         LINE#         235
  C:1D7CH         LINE#         236
  C:1D7FH         LINE#         237
  C:1D81H         LINE#         239
  C:1D81H         LINE#         240
  C:1D84H         LINE#         241
  C:1D87H         LINE#         243
  C:1D91H         LINE#         244
  C:1D91H         LINE#         245
  C:1D91H         LINE#         247
BL51 BANKED LINKER/LOCATER V6.22.4.0                                                  07/21/2026  18:51:08  PAGE 35


  C:1D99H         LINE#         248
  -------         ENDPROC       _LED_STATUS_SET
  -------         PROC          LED_RED_BLUE_FLASH_1MS_ISR
  -------         DO            
  X:61F0H         SYMBOL        time_in_cycle
  -------         ENDDO         
  C:13EFH         LINE#         256
  C:13EFH         LINE#         257
  C:13EFH         LINE#         260
  C:13FAH         LINE#         261
  C:13FAH         LINE#         263
  C:13FAH         LINE#         265
  C:1406H         LINE#         268
  C:140FH         LINE#         269
  C:140FH         LINE#         270
  C:141CH         LINE#         273
  C:1427H         LINE#         274
  C:1427H         LINE#         275
  C:1429H         LINE#         276
  C:142BH         LINE#         277
  C:142CH         LINE#         278
  C:1435H         LINE#         279
  C:1435H         LINE#         280
  C:1435H         LINE#         281
  C:1435H         LINE#         282
  C:1437H         LINE#         283
  C:1440H         LINE#         284
  C:1440H         LINE#         285
  C:1442H         LINE#         286
  C:1444H         LINE#         287
  C:1445H         LINE#         289
  C:1445H         LINE#         290
  C:1447H         LINE#         291
  C:1449H         LINE#         292
  C:1449H         LINE#         293
  C:144AH         LINE#         295
  C:1453H         LINE#         296
  C:1453H         LINE#         297
  C:1464H         LINE#         299
  C:1470H         LINE#         300
  C:1470H         LINE#         301
  C:1472H         LINE#         302
  C:1474H         LINE#         303
  C:1475H         LINE#         312
  C:147FH         LINE#         313
  C:147FH         LINE#         315
  C:148CH         LINE#         316
  C:148CH         LINE#         317
  C:148EH         LINE#         318
  C:1491H         LINE#         320
  C:1491H         LINE#         323
  C:14A2H         LINE#         325
  C:14ADH         LINE#         326
  C:14ADH         LINE#         327
  C:14AFH         LINE#         328
  C:14B4H         LINE#         329
  C:14B4H         LINE#         330
BL51 BANKED LINKER/LOCATER V6.22.4.0                                                  07/21/2026  18:51:08  PAGE 36


  C:14B6H         LINE#         331
  C:14B7H         LINE#         333
  C:14B7H         LINE#         334
  C:14B9H         LINE#         335
  C:14B9H         LINE#         336
  C:14BAH         LINE#         339
  C:14BAH         LINE#         340
  C:14BCH         LINE#         341
  C:14C4H         LINE#         342
  C:14C4H         LINE#         343
  C:14C6H         LINE#         344
  C:14C7H         LINE#         346
  C:14C7H         LINE#         347
  C:14C9H         LINE#         348
  C:14C9H         LINE#         349
  C:14C9H         LINE#         350
  C:14CAH         LINE#         352
  C:14CAH         LINE#         353
  C:14CCH         LINE#         354
  C:14CEH         LINE#         355
  C:14D8H         LINE#         356
  C:14D8H         LINE#         357
  -------         ENDPROC       LED_RED_BLUE_FLASH_1MS_ISR
  C:12D8H         SYMBOL        L?0091
  -------         PROC          LED_SLOW_ADJUST_ISR
  C:11D3H         LINE#         360
  C:11D3H         LINE#         361
  C:11D3H         LINE#         362
  C:11E5H         LINE#         365
  C:11E5H         LINE#         371
  C:11F1H         LINE#         372
  C:11F1H         LINE#         373
  C:11FDH         LINE#         374
  C:11FDH         LINE#         375
  C:11FDH         LINE#         377
  C:11FDH         LINE#         380
  C:11FDH         LINE#         382
  C:1203H         LINE#         383
  C:1203H         LINE#         385
  C:120DH         LINE#         388
  C:1213H         LINE#         389
  C:121CH         LINE#         390
  C:121CH         LINE#         391
  C:121DH         LINE#         392
  C:1228H         LINE#         393
  C:1228H         LINE#         394
  C:1229H         LINE#         395
  C:1232H         LINE#         397
  C:1232H         LINE#         398
  C:1235H         LINE#         399
  C:1235H         LINE#         401
  C:1242H         LINE#         403
  C:1242H         LINE#         404
  C:1242H         LINE#         405
  C:1242H         LINE#         406
  C:1242H         LINE#         407
  C:1242H         LINE#         408
BL51 BANKED LINKER/LOCATER V6.22.4.0                                                  07/21/2026  18:51:08  PAGE 37


  C:1245H         LINE#         410
  C:1245H         LINE#         414
  C:124FH         LINE#         415
  C:1254H         LINE#         418
  C:125DH         LINE#         419
  C:125DH         LINE#         424
  C:126DH         LINE#         425
  C:126DH         LINE#         427
  C:1273H         LINE#         429
  C:1273H         LINE#         432
  C:127CH         LINE#         433
  C:127CH         LINE#         434
  C:127EH         LINE#         435
  C:127FH         LINE#         436
  C:1288H         LINE#         438
  C:1288H         LINE#         439
  C:128BH         LINE#         440
  C:128BH         LINE#         442
  C:1295H         LINE#         444
  C:1295H         LINE#         445
  C:1295H         LINE#         446
  C:1295H         LINE#         447
  C:1295H         LINE#         448
  C:1297H         LINE#         449
  C:12A0H         LINE#         450
  C:12A0H         LINE#         453
  C:12A8H         LINE#         454
  C:12A8H         LINE#         455
  C:12AAH         LINE#         456
  C:12AFH         LINE#         457
  C:12B8H         LINE#         459
  C:12B8H         LINE#         460
  C:12C3H         LINE#         461
  C:12C3H         LINE#         463
  C:12CCH         LINE#         465
  C:12CCH         LINE#         466
  C:12D7H         LINE#         467
  C:12D7H         LINE#         468
  C:12D7H         LINE#         469
  C:12D7H         LINE#         470
  C:12D7H         LINE#         489
  -------         ENDPROC       LED_SLOW_ADJUST_ISR
  -------         ENDMOD        LED

  -------         MODULE        BATTERY_MONITOR
  C:0000H         SYMBOL        _ICE_DUMMY_
  X:61FBH         PUBLIC        is_sent_low_bat_alert
  X:61FCH         PUBLIC        is_low_power_wakeup_initialize_enable
  X:61FDH         PUBLIC        low_power_wakeup_initialize_cnt
  X:6201H         PUBLIC        discharge_time_cnt
  X:6205H         PUBLIC        charge_time_cnt
  C:1BB4H         PUBLIC        battery_monitor_handle
  C:14D9H         PUBLIC        batttery_monitor_1ms_isr
  C:1F38H         PUBLIC        send_low_bat_timer_callback
  C:1B2DH         PUBLIC        _bat_charge_time_cnt_update
  C:1679H         PUBLIC        _bat_discharge_time_cnt_update
  X:6209H         SYMBOL        is_send_low_bat_repeatedly_enable
BL51 BANKED LINKER/LOCATER V6.22.4.0                                                  07/21/2026  18:51:08  PAGE 38


  C:23E8H         SYMBOL        Com0042
  C:23E8H         SYMBOL        L?0067
  C:23EEH         SYMBOL        L?0068
  C:23F5H         SYMBOL        L?0069
  C:23F5H         SYMBOL        L?0070
  C:2406H         SYMBOL        L?0071
  C:2414H         SYMBOL        L?0072
  C:2414H         SYMBOL        L?0073
  C:241DH         SYMBOL        L?0074
  -------         PROC          COM0042
  -------         ENDPROC       COM0042
  -------         PROC          SEND_LOW_BAT_TIMER_CALLBACK
  -------         DO            
  X:61F4H         SYMBOL        cnt
  X:61F8H         SYMBOL        is_first_time_to_send
  -------         ENDDO         
  C:1F38H         LINE#         32
  C:1F38H         LINE#         33
  C:1F38H         LINE#         42
  C:1F3EH         LINE#         43
  C:1F3EH         LINE#         44
  C:1F4AH         LINE#         46
  C:1F6FH         LINE#         47
  C:1F6FH         LINE#         48
  C:1F75H         LINE#         49
  C:1F75H         LINE#         50
  C:1F77H         LINE#         51
  C:1F77H         LINE#         53
  C:1F81H         LINE#         54
  C:1F84H         LINE#         55
  C:1F84H         LINE#         56
  C:1F86H         LINE#         58
  C:1F86H         LINE#         59
  C:1F90H         LINE#         62
  C:1F96H         LINE#         63
  C:1F96H         LINE#         64
  -------         ENDPROC       SEND_LOW_BAT_TIMER_CALLBACK
  -------         PROC          BATTTERY_MONITOR_1MS_ISR
  -------         DO            
  X:61F9H         SYMBOL        cnt_1ms
  -------         ENDDO         
  C:14D9H         LINE#         66
  C:14D9H         LINE#         67
  C:14D9H         LINE#         70
  C:14E8H         LINE#         71
  C:14E8H         LINE#         72
  C:14EFH         LINE#         73
  C:14EFH         LINE#         75
  C:14F5H         LINE#         76
  C:14F5H         LINE#         78
  C:14FAH         LINE#         79
  C:14FAH         LINE#         80
  C:14FEH         LINE#         81
  C:1506H         LINE#         82
  C:1506H         LINE#         83
  C:150FH         LINE#         84
  C:150FH         LINE#         85
BL51 BANKED LINKER/LOCATER V6.22.4.0                                                  07/21/2026  18:51:08  PAGE 39


  C:150FH         LINE#         86
  C:1511H         LINE#         87
  C:1529H         LINE#         91
  C:1529H         LINE#         93
  C:152EH         LINE#         94
  C:152EH         LINE#         95
  C:1532H         LINE#         96
  C:153AH         LINE#         97
  C:153AH         LINE#         98
  C:1546H         LINE#         99
  C:1546H         LINE#         100
  C:1546H         LINE#         101
  C:1548H         LINE#         103
  C:1548H         LINE#         104
  C:154FH         LINE#         105
  C:154FH         LINE#         107
  C:1555H         LINE#         108
  C:1555H         LINE#         109
  C:155FH         LINE#         116
  C:156FH         LINE#         119
  C:156FH         LINE#         120
  C:1579H         LINE#         121
  C:157EH         LINE#         123
  C:158DH         LINE#         124
  C:1593H         LINE#         125
  C:1599H         LINE#         126
  C:159FH         LINE#         143
  C:159FH         LINE#         144
  C:159FH         LINE#         146
  C:159FH         LINE#         147
  C:15A9H         LINE#         148
  C:15A9H         LINE#         149
  -------         ENDPROC       BATTTERY_MONITOR_1MS_ISR
  -------         PROC          _BAT_CHARGE_TIME_CNT_UPDATE
  D:0006H         SYMBOL        voltage_mv
  C:1B2DH         LINE#         157
  C:1B2DH         LINE#         158
  C:1B2DH         LINE#         159
  C:1B33H         LINE#         160
  C:1B33H         LINE#         165
  C:1B3CH         LINE#         166
  C:1B3CH         LINE#         168
  C:1B3CH         LINE#         169
  C:1B3EH         LINE#         170
  C:1B47H         LINE#         171
  C:1B47H         LINE#         172
  C:1B47H         LINE#         173
  C:1B49H         LINE#         174
  C:1B52H         LINE#         175
  C:1B52H         LINE#         177
  C:1B52H         LINE#         178
  C:1B54H         LINE#         179
  C:1B60H         LINE#         180
  C:1B60H         LINE#         182
  C:1B67H         LINE#         183
  C:1B68H         LINE#         185
  C:1B68H         LINE#         186
BL51 BANKED LINKER/LOCATER V6.22.4.0                                                  07/21/2026  18:51:08  PAGE 40


  C:1B6FH         LINE#         187
  C:1B6FH         LINE#         188
  C:1B70H         LINE#         190
  C:1B70H         LINE#         192
  C:1B79H         LINE#         193
  C:1B79H         LINE#         194
  C:1B83H         LINE#         195
  C:1B84H         LINE#         196
  C:1B8DH         LINE#         197
  C:1B8DH         LINE#         198
  C:1B97H         LINE#         199
  C:1B98H         LINE#         200
  C:1BA4H         LINE#         201
  C:1BA4H         LINE#         202
  C:1BABH         LINE#         203
  C:1BACH         LINE#         205
  C:1BACH         LINE#         206
  C:1BB3H         LINE#         207
  C:1BB3H         LINE#         208
  C:1BB3H         LINE#         209
  -------         ENDPROC       _BAT_CHARGE_TIME_CNT_UPDATE
  -------         PROC          _BAT_DISCHARGE_TIME_CNT_UPDATE
  X:61F0H         SYMBOL        voltage_mv
  C:1679H         LINE#         217
  C:1681H         LINE#         218
  C:1681H         LINE#         220
  C:1689H         LINE#         221
  C:1689H         LINE#         222
  C:1698H         LINE#         223
  C:1698H         LINE#         228
  C:16A2H         LINE#         229
  C:16A2H         LINE#         230
  C:16A3H         LINE#         231
  C:16B2H         LINE#         232
  C:16B2H         LINE#         233
  C:16BEH         LINE#         234
  C:16BEH         LINE#         239
  C:16C8H         LINE#         240
  C:16C8H         LINE#         241
  C:16C9H         LINE#         242
  C:16D8H         LINE#         243
  C:16D8H         LINE#         244
  C:16E7H         LINE#         245
  C:16E7H         LINE#         250
  C:16F1H         LINE#         251
  C:16F1H         LINE#         252
  C:16F2H         LINE#         253
  C:1701H         LINE#         254
  C:1701H         LINE#         255
  C:1710H         LINE#         256
  C:1710H         LINE#         261
  C:171AH         LINE#         262
  C:171AH         LINE#         263
  C:171BH         LINE#         265
  C:171BH         LINE#         266
  C:1725H         LINE#         267
  C:1725H         LINE#         268
BL51 BANKED LINKER/LOCATER V6.22.4.0                                                  07/21/2026  18:51:08  PAGE 41


  -------         ENDPROC       _BAT_DISCHARGE_TIME_CNT_UPDATE
  -------         PROC          BATTERY_MONITOR_HANDLE
  C:1BB4H         LINE#         271
  C:1BB4H         LINE#         272
  C:1BB4H         LINE#         276
  C:1BC1H         LINE#         278
  C:1BC1H         LINE#         281
  C:1BC1H         LINE#         284
  C:1BD0H         LINE#         285
  C:1BD0H         LINE#         293
  C:1BD6H         LINE#         294
  C:1BD6H         LINE#         295
  C:1BDBH         LINE#         296
  C:1BDBH         LINE#         303
  C:1BE1H         LINE#         304
  C:1BE1H         LINE#         305
  C:1BE6H         LINE#         307
  C:1BEDH         LINE#         308
  C:1BF0H         LINE#         309
  C:1BF7H         LINE#         310
  C:1BF7H         LINE#         313
  C:1BF7H         LINE#         315
  C:1BFDH         LINE#         316
  C:1BFDH         LINE#         319
  C:1BFDH         LINE#         327
  C:1C12H         LINE#         328
  C:1C12H         LINE#         333
  C:1C18H         LINE#         334
  C:1C18H         LINE#         335
  C:1C1BH         LINE#         336
  C:1C1BH         LINE#         338
  C:1C20H         LINE#         339
  C:1C26H         LINE#         340
  C:1C26H         LINE#         343
  C:1C2CH         LINE#         344
  C:1C2CH         LINE#         345
  C:1C31H         LINE#         346
  C:1C36H         LINE#         351
  C:1C36H         LINE#         352
  -------         ENDPROC       BATTERY_MONITOR_HANDLE
  -------         ENDMOD        BATTERY_MONITOR

  -------         MODULE        BLUETOOTH_IC_HANDLE
  C:0000H         SYMBOL        _ICE_DUMMY_
  B:00A0H.3       PUBLIC        P23
  X:623AH         PUBLIC        ble_ic
  C:27B2H         PUBLIC        bluetooth_ic_handle_init
  C:289FH         PUBLIC        ble_ic_enable
  C:29B1H         PUBLIC        ble_ic_disable_pre
  C:29A2H         PUBLIC        ble_ic_disable_post
  -------         PROC          BLE_IC_ENABLE
  C:289FH         LINE#         9
  C:289FH         LINE#         10
  C:289FH         LINE#         11
  C:28A1H         LINE#         12
  C:28A8H         LINE#         13
  C:28ADH         LINE#         14
BL51 BANKED LINKER/LOCATER V6.22.4.0                                                  07/21/2026  18:51:08  PAGE 42


  C:28B3H         LINE#         19
  -------         ENDPROC       BLE_IC_ENABLE
  -------         PROC          BLE_IC_DISABLE_PRE
  C:29B1H         LINE#         22
  C:29B1H         LINE#         23
  C:29B1H         LINE#         24
  -------         ENDPROC       BLE_IC_DISABLE_PRE
  -------         PROC          BLE_IC_DISABLE_POST
  C:29A2H         LINE#         33
  C:29A2H         LINE#         34
  C:29A2H         LINE#         36
  C:29A4H         LINE#         37
  C:29A9H         LINE#         42
  -------         ENDPROC       BLE_IC_DISABLE_POST
  -------         PROC          BLUETOOTH_IC_HANDLE_INIT
  C:27B2H         LINE#         44
  C:27B2H         LINE#         45
  C:27B2H         LINE#         47
  C:27B8H         LINE#         48
  C:27BCH         LINE#         49
  C:27C1H         LINE#         50
  C:27C3H         LINE#         52
  C:27C8H         LINE#         55
  C:27CBH         LINE#         56
  -------         ENDPROC       BLUETOOTH_IC_HANDLE_INIT
  -------         ENDMOD        BLUETOOTH_IC_HANDLE

  -------         MODULE        CHARGE_DET
  C:0000H         SYMBOL        _ICE_DUMMY_
  B:00A0H.1       PUBLIC        P21
  B:00A0H.2       PUBLIC        P22
  X:61B9H         PUBLIC        is_in_charging_by_solar_panel
  X:61BAH         PUBLIC        is_in_charging_by_charger
  X:61BBH         PUBLIC        is_in_charging
  X:61BCH         PUBLIC        is_charging_ic_stop
  X:61BDH         PUBLIC        is_in_discharging
  X:61BEH         PUBLIC        is_detect_discharge_signal
  C:27E6H         PUBLIC        charge_det_init
  C:0F98H         PUBLIC        charge_det
  C:09DCH         PUBLIC        detect_1khz_signal_100us
  C:0D19H         PUBLIC        detect_discharge_1khz_signal_100us
  C:29B6H         PUBLIC        charge_det_time_add
  B:0020H.4       PUBLIC        flag_is_time_to_det_charge
  X:61BFH         PUBLIC        is_charging_by_solar_panel_cnt
  X:61C0H         PUBLIC        is_not_charging_by_solar_panel_cnt
  C:25EDH         SYMBOL        Com0051
  C:25EDH         SYMBOL        L?0082
  C:25F0H         SYMBOL        L?0083
  C:25F1H         SYMBOL        L?0084
  C:25F7H         SYMBOL        L?0085
  C:25FBH         SYMBOL        L?0086
  C:2607H         SYMBOL        L?0087
  C:2607H         SYMBOL        L?0088
  C:260EH         SYMBOL        L?0089
  -------         PROC          COM0051
  -------         ENDPROC       COM0051
  -------         PROC          CHARGE_DET_INIT
BL51 BANKED LINKER/LOCATER V6.22.4.0                                                  07/21/2026  18:51:08  PAGE 43


  C:27E6H         LINE#         22
  C:27E6H         LINE#         23
  C:27E6H         LINE#         26
  C:27ECH         LINE#         27
  C:27F2H         LINE#         30
  C:27F8H         LINE#         31
  C:27FEH         LINE#         33
  -------         ENDPROC       CHARGE_DET_INIT
  -------         PROC          DETECT_1KHZ_SIGNAL_100US
  -------         DO            
  X:619AH         SYMBOL        signal_high_duration
  X:619CH         SYMBOL        signal_low_duration
  X:619EH         SYMBOL        detection_state
  X:619FH         SYMBOL        toggle_count_in_period
  X:61A1H         SYMBOL        measurement_period_counter
  X:61A3H         SYMBOL        is_detected_signal
  X:61F2H         SYMBOL        current_pin_state
  X:61A4H         SYMBOL        consecutive_detection_count
  X:61A6H         SYMBOL        undetected_charging_count
  -------         ENDDO         
  C:09DCH         LINE#         37
  C:09DCH         LINE#         38
  C:09DCH         LINE#         50
  C:09E4H         LINE#         58
  C:09EAH         LINE#         61
  C:09FBH         LINE#         62
  C:09FBH         LINE#         63
  C:0A01H         LINE#         64
  C:0A10H         LINE#         65
  C:0A10H         LINE#         67
  C:0A14H         LINE#         68
  C:0A18H         LINE#         69
  C:0A1CH         LINE#         70
  C:0A1FH         LINE#         71
  C:0A1FH         LINE#         72
  C:0A21H         LINE#         74
  C:0A21H         LINE#         75
  C:0A28H         LINE#         76
  C:0A28H         LINE#         78
  C:0A39H         LINE#         79
  C:0A39H         LINE#         80
  C:0A39H         LINE#         81
  C:0A40H         LINE#         82
  C:0A40H         LINE#         83
  C:0A43H         LINE#         84
  C:0A4BH         LINE#         85
  C:0A4BH         LINE#         86
  C:0A4EH         LINE#         88
  C:0A4EH         LINE#         89
  C:0A51H         LINE#         90
  C:0A58H         LINE#         91
  C:0A5FH         LINE#         92
  C:0A5FH         LINE#         93
  C:0A62H         LINE#         95
  C:0A62H         LINE#         96
  C:0A69H         LINE#         97
  C:0A69H         LINE#         98
BL51 BANKED LINKER/LOCATER V6.22.4.0                                                  07/21/2026  18:51:08  PAGE 44


  C:0A74H         LINE#         99
  C:0A74H         LINE#         100
  C:0A7AH         LINE#         101
  C:0A7AH         LINE#         103
  C:0A7AH         LINE#         104
  C:0A7DH         LINE#         106
  C:0A7DH         LINE#         107
  C:0A83H         LINE#         108
  C:0A86H         LINE#         113
  C:0AA4H         LINE#         114
  C:0AA4H         LINE#         115
  C:0AA7H         LINE#         116
  C:0AA7H         LINE#         117
  C:0AA7H         LINE#         118
  C:0AA7H         LINE#         119
  C:0AA9H         LINE#         121
  C:0AA9H         LINE#         122
  C:0AAFH         LINE#         123
  C:0AAFH         LINE#         124
  C:0AB5H         LINE#         125
  C:0AB9H         LINE#         126
  C:0ABBH         LINE#         128
  C:0ABBH         LINE#         129
  C:0AC1H         LINE#         130
  C:0AC4H         LINE#         135
  C:0AE2H         LINE#         136
  C:0AE2H         LINE#         137
  C:0AE5H         LINE#         138
  C:0AE5H         LINE#         140
  C:0AECH         LINE#         141
  C:0AECH         LINE#         142
  C:0AECH         LINE#         143
  C:0AECH         LINE#         145
  C:0AFBH         LINE#         146
  C:0AFBH         LINE#         147
  C:0AFFH         LINE#         153
  C:0B0DH         LINE#         154
  C:0B0DH         LINE#         155
  C:0B13H         LINE#         156
  C:0B15H         LINE#         157
  C:0B24H         LINE#         158
  C:0B24H         LINE#         160
  C:0B29H         LINE#         161
  C:0B29H         LINE#         162
  C:0B30H         LINE#         163
  C:0B30H         LINE#         165
  C:0B36H         LINE#         166
  C:0B36H         LINE#         167
  C:0B3AH         LINE#         168
  C:0B49H         LINE#         169
  C:0B49H         LINE#         170
  C:0B4FH         LINE#         171
  C:0B4FH         LINE#         174
  C:0B5EH         LINE#         175
  C:0B5EH         LINE#         176
  C:0B64H         LINE#         178
  C:0B6EH         LINE#         179
BL51 BANKED LINKER/LOCATER V6.22.4.0                                                  07/21/2026  18:51:08  PAGE 45


  C:0B6EH         LINE#         180
  C:0B6FH         LINE#         182
  C:0B6FH         LINE#         183
  C:0B7EH         LINE#         184
  C:0B7EH         LINE#         185
  C:0B85H         LINE#         186
  C:0B85H         LINE#         187
  C:0B85H         LINE#         190
  -------         ENDPROC       DETECT_1KHZ_SIGNAL_100US
  -------         PROC          DETECT_DISCHARGE_1KHZ_SIGNAL_100US
  -------         DO            
  X:61A8H         SYMBOL        signal_high_duration
  X:61AAH         SYMBOL        signal_low_duration
  X:61ACH         SYMBOL        detection_state
  X:61ADH         SYMBOL        toggle_count_in_period
  X:61AFH         SYMBOL        measurement_period_counter
  X:61F2H         SYMBOL        current_pin_state
  X:61B1H         SYMBOL        is_detected_signal
  X:61B2H         SYMBOL        detect_discharge_signal_cnt
  X:61B3H         SYMBOL        undetect_discharge_signal_cnt
  -------         ENDDO         
  C:0D19H         LINE#         193
  C:0D19H         LINE#         194
  C:0D19H         LINE#         210
  C:0D21H         LINE#         222
  C:0D27H         LINE#         227
  C:0D3BH         LINE#         228
  C:0D3BH         LINE#         229
  C:0D3BH         LINE#         230
  C:0D45H         LINE#         231
  C:0D45H         LINE#         236
  C:0D48H         LINE#         237
  C:0D50H         LINE#         238
  C:0D50H         LINE#         239
  C:0D53H         LINE#         241
  C:0D53H         LINE#         242
  C:0D56H         LINE#         243
  C:0D5DH         LINE#         244
  C:0D64H         LINE#         245
  C:0D64H         LINE#         246
  C:0D67H         LINE#         248
  C:0D67H         LINE#         249
  C:0D6EH         LINE#         250
  C:0D6EH         LINE#         251
  C:0D79H         LINE#         252
  C:0D79H         LINE#         253
  C:0D7FH         LINE#         254
  C:0D7FH         LINE#         256
  C:0D7FH         LINE#         257
  C:0D82H         LINE#         259
  C:0D82H         LINE#         260
  C:0D88H         LINE#         261
  C:0D8BH         LINE#         266
  C:0DA9H         LINE#         267
  C:0DA9H         LINE#         268
  C:0DAFH         LINE#         269
  C:0DAFH         LINE#         270
BL51 BANKED LINKER/LOCATER V6.22.4.0                                                  07/21/2026  18:51:08  PAGE 46


  C:0DAFH         LINE#         271
  C:0DAFH         LINE#         272
  C:0DB1H         LINE#         274
  C:0DB1H         LINE#         275
  C:0DB7H         LINE#         276
  C:0DB7H         LINE#         277
  C:0DBDH         LINE#         278
  C:0DC1H         LINE#         279
  C:0DC3H         LINE#         281
  C:0DC3H         LINE#         282
  C:0DC9H         LINE#         283
  C:0DCCH         LINE#         288
  C:0DEAH         LINE#         289
  C:0DEAH         LINE#         290
  C:0DF0H         LINE#         291
  C:0DF0H         LINE#         293
  C:0DF7H         LINE#         294
  C:0DF7H         LINE#         295
  C:0DF7H         LINE#         296
  C:0DF7H         LINE#         298
  C:0E06H         LINE#         299
  C:0E06H         LINE#         300
  C:0E0AH         LINE#         306
  C:0E18H         LINE#         307
  C:0E18H         LINE#         308
  C:0E1EH         LINE#         309
  C:0E20H         LINE#         310
  C:0E2FH         LINE#         311
  C:0E2FH         LINE#         312
  C:0E34H         LINE#         313
  C:0E34H         LINE#         316
  C:0E3BH         LINE#         318
  C:0E41H         LINE#         319
  C:0E41H         LINE#         320
  C:0E46H         LINE#         321
  C:0E4CH         LINE#         322
  C:0E52H         LINE#         323
  C:0E52H         LINE#         324
  C:0E54H         LINE#         326
  C:0E59H         LINE#         327
  C:0E59H         LINE#         328
  C:0E5AH         LINE#         330
  C:0E5AH         LINE#         331
  C:0E5FH         LINE#         332
  C:0E63H         LINE#         333
  C:0E69H         LINE#         334
  C:0E69H         LINE#         335
  C:0E6BH         LINE#         337
  C:0E6FH         LINE#         338
  C:0E6FH         LINE#         339
  C:0E6FH         LINE#         340
  C:0E6FH         LINE#         341
  -------         ENDPROC       DETECT_DISCHARGE_1KHZ_SIGNAL_100US
  -------         PROC          CHARGE_DET_TIME_ADD
  C:29B6H         LINE#         343
  C:29B6H         LINE#         344
  C:29B6H         LINE#         345
BL51 BANKED LINKER/LOCATER V6.22.4.0                                                  07/21/2026  18:51:08  PAGE 47


  C:29B8H         LINE#         346
  -------         ENDPROC       CHARGE_DET_TIME_ADD
  -------         PROC          CHARGE_DET
  -------         DO            
  X:61B4H         SYMBOL        adc_val_of_solar_panel
  X:61B6H         SYMBOL        adc_val_of_type_c
  X:61DBH         SYMBOL        voltage_mv
  X:61B8H         SYMBOL        is_discharge_det_time_cnt
  -------         ENDDO         
  C:0F98H         LINE#         350
  C:0F98H         LINE#         351
  C:0F98H         LINE#         354
  C:0F9FH         LINE#         359
  C:0FA7H         LINE#         360
  C:0FA7H         LINE#         361
  C:0FACH         LINE#         362
  C:0FB9H         LINE#         363
  C:0FB9H         LINE#         365
  C:0FC1H         LINE#         366
  C:0FC1H         LINE#         367
  C:0FC6H         LINE#         368
  C:0FD3H         LINE#         369
  C:0FD3H         LINE#         371
  C:0FD9H         LINE#         372
  C:0FD9H         LINE#         373
  C:0FDBH         LINE#         374
  C:0FDBH         LINE#         376
  C:0FDBH         LINE#         379
  C:0FDBH         LINE#         389
  C:0FFBH         LINE#         391
  C:1010H         LINE#         392
  C:1010H         LINE#         393
  C:1015H         LINE#         394
  C:101BH         LINE#         395
  C:1020H         LINE#         396
  C:1020H         LINE#         397
  C:1022H         LINE#         399
  C:1027H         LINE#         404
  C:1027H         LINE#         405
  C:1029H         LINE#         407
  C:1029H         LINE#         408
  C:102EH         LINE#         409
  C:1032H         LINE#         410
  C:1038H         LINE#         411
  C:1038H         LINE#         412
  C:103AH         LINE#         414
  C:103EH         LINE#         419
  C:103EH         LINE#         420
  C:103EH         LINE#         437
  C:1069H         LINE#         439
  C:1069H         LINE#         442
  C:1069H         LINE#         444
  C:106CH         LINE#         445
  C:106EH         LINE#         446
  C:1070H         LINE#         447
  C:1079H         LINE#         448
  C:1079H         LINE#         450
BL51 BANKED LINKER/LOCATER V6.22.4.0                                                  07/21/2026  18:51:08  PAGE 48


  C:107FH         LINE#         451
  C:107FH         LINE#         453
  C:1085H         LINE#         454
  C:108AH         LINE#         455
  C:108AH         LINE#         456
  C:108CH         LINE#         458
  C:1091H         LINE#         459
  C:1091H         LINE#         460
  C:1091H         LINE#         461
  C:1093H         LINE#         463
  C:1093H         LINE#         466
  C:1093H         LINE#         468
  C:1096H         LINE#         469
  C:1096H         LINE#         473
  C:10A2H         LINE#         474
  C:10A2H         LINE#         475
  C:10A8H         LINE#         478
  C:10ADH         LINE#         479
  C:10AEH         LINE#         480
  C:10BAH         LINE#         481
  C:10BAH         LINE#         482
  C:10BEH         LINE#         483
  C:10BEH         LINE#         500
  -------         ENDPROC       CHARGE_DET
  -------         ENDMOD        CHARGE_DET

  -------         MODULE        LOW_POWER
  C:0000H         SYMBOL        _ICE_DUMMY_
  D:00BAH         PUBLIC        LP_CON
  D:008DH         PUBLIC        LP_WKCON
  D:008EH         PUBLIC        LP_WKPND
  D:00A8H         PUBLIC        IE0
  D:00A9H         PUBLIC        IE1
  D:00AAH         PUBLIC        IE2
  D:00ABH         PUBLIC        IE3
  B:00A8H.7       PUBLIC        IE_EA
  D:00B8H         PUBLIC        IP0
  D:00B1H         PUBLIC        IP1
  D:00B2H         PUBLIC        IP2
  D:00B3H         PUBLIC        IP3
  D:00B4H         PUBLIC        IP4
  D:00B5H         PUBLIC        IP5
  D:00B6H         PUBLIC        IP6
  D:00B7H         PUBLIC        IP7
  D:00D2H         PUBLIC        UART0_CON0
  D:00D1H         PUBLIC        TMR_ALLCON
  D:00ACH         PUBLIC        FLASH_TIMEREG1
  D:0099H         PUBLIC        ADC_CHS0
  C:0E70H         PUBLIC        low_power_handle
  C:1F97H         PUBLIC        low_power_enter_timer_callback
  X:6234H         SYMBOL        is_low_power_enter_enable
  C:268DH         PUBLIC        is_low_power_condition_establish
  C:12E4H         PUBLIC        low_power_in
  C:21C3H         PUBLIC        low_power_out
  C:2817H         PUBLIC        WUT_IRQHandler
  C:2954H         SYMBOL        Com006D
  C:2954H         SYMBOL        L?0110
BL51 BANKED LINKER/LOCATER V6.22.4.0                                                  07/21/2026  18:51:08  PAGE 49


  -------         PROC          COM006D
  -------         ENDPROC       COM006D
  -------         PROC          IS_LOW_POWER_CONDITION_ESTABLISH
  C:268DH         LINE#         7
  C:268DH         LINE#         8
  C:268DH         LINE#         14
  C:26B0H         LINE#         19
  -------         ENDPROC       IS_LOW_POWER_CONDITION_ESTABLISH
  -------         PROC          LOW_POWER_ENTER_TIMER_CALLBACK
  -------         DO            
  X:6230H         SYMBOL        cnt
  -------         ENDDO         
  C:1F97H         LINE#         22
  C:1F97H         LINE#         23
  C:1F97H         LINE#         25
  C:1F9DH         LINE#         26
  C:1F9DH         LINE#         27
  C:1FB6H         LINE#         29
  C:1FC9H         LINE#         30
  C:1FC9H         LINE#         31
  C:1FD3H         LINE#         32
  C:1FDBH         LINE#         33
  C:1FDBH         LINE#         34
  C:1FDCH         LINE#         36
  C:1FDCH         LINE#         37
  C:1FE6H         LINE#         38
  C:1FEDH         LINE#         39
  C:1FEDH         LINE#         40
  -------         ENDPROC       LOW_POWER_ENTER_TIMER_CALLBACK
  -------         PROC          LOW_POWER_IN
  C:12E4H         LINE#         42
  C:12E4H         LINE#         43
  C:12E4H         LINE#         48
  C:12E7H         LINE#         49
  C:12EAH         LINE#         50
  C:12EDH         LINE#         51
  C:12F0H         LINE#         53
  C:12F6H         LINE#         54
  C:12FCH         LINE#         56
  C:1303H         LINE#         58
  C:1306H         LINE#         59
  C:130CH         LINE#         61
  C:1311H         LINE#         62
  C:1314H         LINE#         71
  C:131AH         LINE#         72
  C:1320H         LINE#         74
  C:1326H         LINE#         75
  C:132CH         LINE#         78
  C:1332H         LINE#         79
  C:1336H         LINE#         80
  C:133CH         LINE#         83
  C:1340H         LINE#         84
  C:1346H         LINE#         85
  C:134AH         LINE#         86
  C:134FH         LINE#         104
  C:1353H         LINE#         105
  C:1359H         LINE#         108
BL51 BANKED LINKER/LOCATER V6.22.4.0                                                  07/21/2026  18:51:08  PAGE 50


  C:135EH         LINE#         110
  C:1362H         LINE#         113
  C:1366H         LINE#         114
  C:136CH         LINE#         116
  C:1373H         LINE#         122
  C:1376H         LINE#         131
  C:137CH         LINE#         132
  C:1382H         LINE#         133
  C:1388H         LINE#         134
  C:138EH         LINE#         138
  C:1391H         LINE#         139
  C:1394H         LINE#         140
  C:1397H         LINE#         143
  C:139AH         LINE#         144
  C:139DH         LINE#         146
  C:13A0H         LINE#         147
  C:13A3H         LINE#         150
  C:13A6H         LINE#         151
  C:13A9H         LINE#         154
  C:13ACH         LINE#         155
  C:13AEH         LINE#         158
  C:13B5H         LINE#         159
  C:13B9H         LINE#         163
  C:13BEH         LINE#         164
  C:13C5H         LINE#         166
  C:13CCH         LINE#         168
  C:13D3H         LINE#         169
  C:13DAH         LINE#         170
  C:13DDH         LINE#         172
  C:13E4H         LINE#         173
  C:13EBH         LINE#         178
  C:13EEH         LINE#         184
  -------         ENDPROC       LOW_POWER_IN
  -------         PROC          LOW_POWER_OUT
  C:21C3H         LINE#         186
  C:21C3H         LINE#         187
  C:21C3H         LINE#         189
  C:21C6H         LINE#         190
  C:21CDH         LINE#         191
  C:21D4H         LINE#         194
  C:21D7H         LINE#         198
  C:21DCH         LINE#         199
  C:21DEH         LINE#         205
  C:21E5H         LINE#         206
  C:21EAH         LINE#         207
  C:21F1H         LINE#         209
  C:21F8H         LINE#         210
  C:21FFH         LINE#         212
  C:2202H         LINE#         213
  C:2205H         LINE#         214
  C:220CH         LINE#         215
  -------         ENDPROC       LOW_POWER_OUT
  C:0F82H         SYMBOL        L?0108
  -------         PROC          LOW_POWER_HANDLE
  -------         DO            
  X:61DBH         SYMBOL        is_charge_sig_wkup
  X:61DCH         SYMBOL        is_discharge_sig_wkup
BL51 BANKED LINKER/LOCATER V6.22.4.0                                                  07/21/2026  18:51:08  PAGE 51


  X:61DDH         SYMBOL        is_key_sig_wkup
  X:61DEH         SYMBOL        adc_val
  X:61E0H         SYMBOL        tmp_voltage_mv
  C:0E8DH         SYMBOL        label_low_power_in
  -------         ENDDO         
  C:0E70H         LINE#         217
  C:0E70H         LINE#         218
  C:0E70H         LINE#         219
  C:0E70H         LINE#         220
  C:0E70H         LINE#         221
  C:0E73H         LINE#         223
  C:0E79H         LINE#         225
  C:0E86H         LINE#         226
  C:0E86H         LINE#         227
  C:0E8DH         LINE#         228
  C:0E8DH         LINE#         230
  C:0E8DH         LINE#         232
  C:0E8DH         LINE#         237
  C:0E8DH         LINE#         240
  C:0E92H         LINE#         241
  C:0E9CH         LINE#         243
  C:0E9CH         LINE#         244
  C:0E9CH         LINE#         245
  C:0E9FH         LINE#         248
  C:0EA9H         LINE#         249
  C:0EB3H         LINE#         251
  C:0EB6H         LINE#         252
  C:0EB9H         LINE#         260
  C:0EBCH         LINE#         261
  C:0EBFH         LINE#         263
  C:0EC1H         LINE#         264
  C:0EC1H         LINE#         265
  C:0EC4H         LINE#         267
  C:0ECCH         LINE#         268
  C:0ECCH         LINE#         270
  C:0ED2H         LINE#         274
  C:0ED2H         LINE#         276
  C:0ED4H         LINE#         277
  C:0ED4H         LINE#         278
  C:0ED7H         LINE#         280
  C:0EFCH         LINE#         281
  C:0EFCH         LINE#         282
  C:0F02H         LINE#         286
  C:0F02H         LINE#         289
  C:0F07H         LINE#         290
  C:0F07H         LINE#         294
  C:0F0AH         LINE#         295
  C:0F10H         LINE#         296
  C:0F10H         LINE#         298
  C:0F15H         LINE#         299
  C:0F15H         LINE#         301
  C:0F18H         LINE#         303
  C:0F1EH         LINE#         308
  C:0F1EH         LINE#         310
  C:0F23H         LINE#         311
  C:0F2AH         LINE#         312
  C:0F35H         LINE#         313
BL51 BANKED LINKER/LOCATER V6.22.4.0                                                  07/21/2026  18:51:08  PAGE 52


  C:0F40H         LINE#         320
  C:0F73H         LINE#         326
  C:0F73H         LINE#         339
  C:0F73H         LINE#         340
  C:0F73H         LINE#         348
  C:0F78H         LINE#         349
  C:0F7BH         LINE#         350
  C:0F81H         LINE#         351
  -------         ENDPROC       LOW_POWER_HANDLE
  -------         PROC          WUT_IRQHANDLER
  C:2817H         LINE#         354
  C:281DH         LINE#         357
  C:281DH         LINE#         362
  C:2824H         LINE#         363
  C:2824H         LINE#         364
  C:2828H         LINE#         365
  C:2828H         LINE#         368
  C:2828H         LINE#         369
  -------         ENDPROC       WUT_IRQHANDLER
  -------         ENDMOD        LOW_POWER

  -------         MODULE        BAT_SCAN
  C:0000H         SYMBOL        _ICE_DUMMY_
  X:6005H         PUBLIC        avg_voltage_mv
  X:6007H         PUBLIC        voltage_mv_global
  C:22E1H         PUBLIC        bat_vol_history_buff_get_avg
  C:1CB0H         PUBLIC        battery_voltage_update_by_isr
  C:2889H         PUBLIC        _bat_vol_history_buff_init
  C:2718H         PUBLIC        _get_battery_voltage_by_adc
  C:245EH         PUBLIC        bat_vol_update_timer_callback
  C:25BFH         PUBLIC        bat_vol_history_buff_add_timer_callback
  C:2873H         PUBLIC        bat_get_avg_vol_period_add
  C:2534H         PUBLIC        bat_scan
  X:6009H         SYMBOL        bat_vol_update_sta
  X:600AH         SYMBOL        bat_vol_update_cnt
  X:600CH         SYMBOL        bat_vol_history_buff
  X:60D4H         SYMBOL        bat_vol_history_buff_idx
  X:60D5H         SYMBOL        min_voltage_mv
  X:60D7H         SYMBOL        bat_avg_vol_scan_period_cnt
  C:27CCH         SYMBOL        _bat_vol_history_buff_add
  C:2326H         SYMBOL        Com001E
  C:2326H         SYMBOL        L?0031
  C:2327H         SYMBOL        L?0032
  C:2333H         SYMBOL        L?0033
  C:2336H         SYMBOL        L?0034
  C:233FH         SYMBOL        L?0035
  C:233FH         SYMBOL        L?0036
  C:2348H         SYMBOL        L?0037
  C:2359H         SYMBOL        L?0038
  -------         PROC          COM001E
  -------         ENDPROC       COM001E
  -------         PROC          BAT_GET_AVG_VOL_PERIOD_ADD
  C:2873H         LINE#         32
  C:2873H         LINE#         33
  C:2873H         LINE#         34
  C:287CH         LINE#         35
  C:287CH         LINE#         36
BL51 BANKED LINKER/LOCATER V6.22.4.0                                                  07/21/2026  18:51:08  PAGE 53


  C:2888H         LINE#         37
  C:2888H         LINE#         38
  -------         ENDPROC       BAT_GET_AVG_VOL_PERIOD_ADD
  -------         PROC          BAT_VOL_UPDATE_TIMER_CALLBACK
  C:245EH         LINE#         41
  C:245EH         LINE#         42
  C:245EH         LINE#         43
  C:2464H         LINE#         44
  C:2464H         LINE#         45
  C:2468H         LINE#         46
  C:246DH         LINE#         47
  C:246FH         LINE#         48
  C:2477H         LINE#         49
  C:2477H         LINE#         52
  C:2477H         LINE#         54
  C:2481H         LINE#         55
  C:2490H         LINE#         56
  C:2490H         LINE#         62
  C:2496H         LINE#         63
  C:2496H         LINE#         64
  -------         ENDPROC       BAT_VOL_UPDATE_TIMER_CALLBACK
  -------         PROC          _GET_BATTERY_VOLTAGE_BY_ADC
  D:0006H         SYMBOL        adc_val
  -------         DO            
  D:0006H         SYMBOL        voltage_mv
  -------         ENDDO         
  C:2718H         LINE#         67
  C:2718H         LINE#         68
  C:2718H         LINE#         69
  C:2728H         LINE#         73
  C:2731H         LINE#         74
  C:2731H         LINE#         76
  C:2739H         LINE#         77
  C:2739H         LINE#         95
  C:2739H         LINE#         96
  -------         ENDPROC       _GET_BATTERY_VOLTAGE_BY_ADC
  -------         PROC          _BAT_VOL_HISTORY_BUFF_INIT
  D:0006H         SYMBOL        voltage_mv
  -------         DO            
  D:0005H         SYMBOL        i
  -------         ENDDO         
  C:2889H         LINE#         98
  C:2889H         LINE#         99
  C:2889H         LINE#         101
  C:288BH         LINE#         102
  C:288BH         LINE#         103
  C:2894H         LINE#         104
  C:2899H         LINE#         105
  C:289EH         LINE#         106
  -------         ENDPROC       _BAT_VOL_HISTORY_BUFF_INIT
  -------         PROC          _BAT_VOL_HISTORY_BUFF_ADD
  D:0006H         SYMBOL        voltage_mv
  C:27CCH         LINE#         108
  C:27CCH         LINE#         109
  C:27CCH         LINE#         110
  C:27D7H         LINE#         112
  C:27DDH         LINE#         113
BL51 BANKED LINKER/LOCATER V6.22.4.0                                                  07/21/2026  18:51:08  PAGE 54


  C:27E3H         LINE#         114
  C:27E3H         LINE#         115
  C:27E5H         LINE#         116
  C:27E5H         LINE#         117
  -------         ENDPROC       _BAT_VOL_HISTORY_BUFF_ADD
  -------         PROC          BAT_VOL_HISTORY_BUFF_GET_AVG
  -------         DO            
  X:61DBH         SYMBOL        i
  X:61DCH         SYMBOL        ret
  -------         ENDDO         
  C:22E1H         LINE#         120
  C:22E1H         LINE#         121
  C:22E1H         LINE#         123
  C:22EBH         LINE#         124
  C:22F0H         LINE#         125
  C:22F0H         LINE#         126
  C:230DH         LINE#         127
  C:2317H         LINE#         134
  -------         ENDPROC       BAT_VOL_HISTORY_BUFF_GET_AVG
  -------         PROC          BATTERY_VOLTAGE_UPDATE_BY_ISR
  -------         DO            
  X:6000H         SYMBOL        is_initialized
  X:61EAH         SYMBOL        adc_val
  X:61ECH         SYMBOL        cur_voltage_mv
  -------         ENDDO         
  C:1CB0H         LINE#         143
  C:1CB0H         LINE#         144
  C:1CB0H         LINE#         146
  C:1CB7H         LINE#         147
  C:1CBDH         LINE#         150
  C:1CC5H         LINE#         151
  C:1CC5H         LINE#         152
  C:1CCAH         LINE#         153
  C:1CD7H         LINE#         155
  C:1CEAH         LINE#         158
  C:1CF0H         LINE#         159
  C:1CF0H         LINE#         160
  C:1CF2H         LINE#         162
  C:1CF5H         LINE#         163
  C:1D04H         LINE#         165
  C:1D0AH         LINE#         167
  C:1D10H         LINE#         168
  C:1D16H         LINE#         169
  C:1D1CH         LINE#         176
  C:1D22H         LINE#         182
  C:1D22H         LINE#         230
  C:1D25H         LINE#         231
  C:1D25H         LINE#         232
  -------         ENDPROC       BATTERY_VOLTAGE_UPDATE_BY_ISR
  -------         PROC          BAT_VOL_HISTORY_BUFF_ADD_TIMER_CALLBACK
  -------         DO            
  X:6001H         SYMBOL        cnt
  -------         ENDDO         
  C:25BFH         LINE#         239
  C:25BFH         LINE#         240
  C:25BFH         LINE#         242
  C:25CBH         LINE#         243
BL51 BANKED LINKER/LOCATER V6.22.4.0                                                  07/21/2026  18:51:08  PAGE 55


  C:25D7H         LINE#         244
  C:25D7H         LINE#         245
  C:25E1H         LINE#         247
  C:25ECH         LINE#         252
  C:25ECH         LINE#         253
  -------         ENDPROC       BAT_VOL_HISTORY_BUFF_ADD_TIMER_CALLBACK
  -------         PROC          BAT_SCAN
  C:2534H         LINE#         255
  C:2534H         LINE#         256
  C:2534H         LINE#         257
  C:253EH         LINE#         258
  C:253EH         LINE#         260
  C:253EH         LINE#         262
  C:2544H         LINE#         263
  C:2544H         LINE#         266
  C:2544H         LINE#         269
  C:254DH         LINE#         270
  C:254DH         LINE#         271
  C:2557H         LINE#         272
  C:2562H         LINE#         276
  C:2562H         LINE#         277
  -------         ENDPROC       BAT_SCAN
  -------         ENDMOD        BAT_SCAN

  -------         MODULE        LED_BAT_LEV
  C:0000H         SYMBOL        _ICE_DUMMY_
  B:0080H.0       PUBLIC        P00
  B:0080H.5       PUBLIC        P05
  B:0080H.6       PUBLIC        P06
  B:0090H.3       PUBLIC        P13
  X:6214H         PUBLIC        led_bat_lev
  X:6215H         PUBLIC        led_bat_lev_sta
  C:2041H         PUBLIC        _led_bat_lev_init_by_vol
  C:1E06H         PUBLIC        led_bat_lev_handle
  C:2497H         PUBLIC        led_bat_lev_dislplay_1ms_isr
  X:6216H         SYMBOL        led_charge_anim_phase
  X:6217H         SYMBOL        led_charge_anim_cnt
  C:074FH         SYMBOL        led_bat_lev_sta_discharge_handle
  C:2642H         SYMBOL        led_bat_lev_sta_alert_handle
  C:0045H         SYMBOL        led_bat_lev_sta_idle_handle
  C:28B4H         SYMBOL        led_bat_lev_sta_charge_begin_handle
  C:1ED3H         SYMBOL        led_bat_lev_sta_charge_begin_anim_handle
  C:10BFH         SYMBOL        led_bat_lev_sta_charging_handle
  C:2979H         SYMBOL        led_bat_lev_sta_charge_end_handle
  C:1866H         SYMBOL        Com00A0
  C:1866H         SYMBOL        L?0161
  C:1869H         SYMBOL        L?0162
  C:1870H         SYMBOL        L?0163
  C:1877H         SYMBOL        L?0164
  C:187BH         SYMBOL        L?0165
  C:1882H         SYMBOL        L?0166
  C:1889H         SYMBOL        L?0167
  C:1890H         SYMBOL        L?0168
  C:1894H         SYMBOL        L?0169
  C:189BH         SYMBOL        L?0170
  C:18B3H         SYMBOL        L?0171
  C:18B7H         SYMBOL        L?0172
BL51 BANKED LINKER/LOCATER V6.22.4.0                                                  07/21/2026  18:51:08  PAGE 56


  C:18BEH         SYMBOL        L?0173
  C:18CFH         SYMBOL        L?0174
  C:18CFH         SYMBOL        L?0175
  C:18D6H         SYMBOL        L?0176
  C:18E4H         SYMBOL        L?0177
  C:18E4H         SYMBOL        L?0178
  C:18EBH         SYMBOL        L?0179
  C:18EBH         SYMBOL        L?0180
  C:18F2H         SYMBOL        L?0181
  -------         PROC          COM00A0
  -------         ENDPROC       COM00A0
  -------         PROC          _LED_BAT_LEV_INIT_BY_VOL
  D:0006H         SYMBOL        voltage_mv
  C:2041H         LINE#         28
  C:2041H         LINE#         29
  C:2041H         LINE#         30
  C:204AH         LINE#         31
  C:204AH         LINE#         32
  C:204FH         LINE#         33
  C:2050H         LINE#         34
  C:2059H         LINE#         35
  C:2059H         LINE#         36
  C:205FH         LINE#         37
  C:2060H         LINE#         38
  C:2069H         LINE#         39
  C:2069H         LINE#         40
  C:206FH         LINE#         41
  C:2070H         LINE#         42
  C:2079H         LINE#         43
  C:2079H         LINE#         44
  C:207FH         LINE#         45
  C:2080H         LINE#         46
  C:208CH         LINE#         47
  C:208CH         LINE#         48
  C:208FH         LINE#         49
  C:2090H         LINE#         51
  C:2090H         LINE#         52
  C:2093H         LINE#         53
  C:2093H         LINE#         54
  -------         ENDPROC       _LED_BAT_LEV_INIT_BY_VOL
  -------         PROC          LED_BAT_LEV_HANDLE
  C:1E06H         LINE#         56
  C:1E06H         LINE#         57
  C:1E06H         LINE#         58
  C:1E23H         LINE#         63
  C:1E23H         LINE#         65
  C:1E26H         LINE#         66
  C:1E27H         LINE#         67
  C:1E3FH         LINE#         71
  C:1E3FH         LINE#         79
  C:1E43H         LINE#         80
  C:1E44H         LINE#         81
  C:1E5CH         LINE#         85
  C:1E5CH         LINE#         86
  C:1E69H         LINE#         88
  C:1E69H         LINE#         90
  C:1E6CH         LINE#         91
BL51 BANKED LINKER/LOCATER V6.22.4.0                                                  07/21/2026  18:51:08  PAGE 57


  C:1E6CH         LINE#         92
  C:1E6CH         LINE#         93
  -------         ENDPROC       LED_BAT_LEV_HANDLE
  -------         PROC          LED_BAT_LEV_STA_DISCHARGE_HANDLE
  -------         DO            
  X:620AH         SYMBOL        jump_down_cnt_ms
  X:61F0H         SYMBOL        target_bat_lev
  -------         ENDDO         
  C:074FH         LINE#         96
  C:074FH         LINE#         97
  C:074FH         LINE#         100
  C:0755H         LINE#         102
  C:0764H         LINE#         105
  C:0764H         LINE#         107
  C:0769H         LINE#         108
  C:0769H         LINE#         109
  C:0769H         LINE#         110
  C:076BH         LINE#         111
  C:0770H         LINE#         112
  C:0770H         LINE#         113
  C:0770H         LINE#         114
  C:0772H         LINE#         115
  C:077EH         LINE#         116
  C:077EH         LINE#         117
  C:077EH         LINE#         118
  C:0780H         LINE#         119
  C:078CH         LINE#         120
  C:078CH         LINE#         121
  C:078FH         LINE#         122
  C:0791H         LINE#         123
  C:079DH         LINE#         124
  C:079DH         LINE#         125
  C:07A0H         LINE#         126
  C:07A2H         LINE#         128
  C:07A2H         LINE#         131
  C:07A2H         LINE#         132
  C:07A2H         LINE#         133
  C:07A7H         LINE#         134
  C:07A7H         LINE#         136
  C:07ACH         LINE#         137
  C:07ACH         LINE#         138
  C:07B2H         LINE#         139
  C:07B4H         LINE#         140
  C:07C3H         LINE#         141
  C:07C3H         LINE#         142
  C:07C9H         LINE#         143
  C:07CBH         LINE#         144
  C:07D0H         LINE#         145
  C:07D0H         LINE#         146
  C:07D6H         LINE#         147
  C:07D8H         LINE#         148
  C:07E7H         LINE#         149
  C:07E7H         LINE#         150
  C:07EAH         LINE#         151
  C:07ECH         LINE#         153
  C:07ECH         LINE#         154
  C:07EFH         LINE#         155
BL51 BANKED LINKER/LOCATER V6.22.4.0                                                  07/21/2026  18:51:08  PAGE 58


  C:07EFH         LINE#         156
  C:07EFH         LINE#         178
  C:07F9H         LINE#         179
  C:07F9H         LINE#         180
  C:0805H         LINE#         181
  C:0805H         LINE#         186
  C:080FH         LINE#         188
  C:081EH         LINE#         191
  C:081EH         LINE#         193
  C:0831H         LINE#         194
  C:0831H         LINE#         195
  C:0831H         LINE#         196
  C:0839H         LINE#         197
  C:0839H         LINE#         198
  C:0839H         LINE#         199
  C:0839H         LINE#         200
  C:083CH         LINE#         202
  C:083CH         LINE#         203
  C:0847H         LINE#         204
  C:0847H         LINE#         205
  C:0847H         LINE#         206
  C:0847H         LINE#         207
  C:0849H         LINE#         209
  C:0849H         LINE#         210
  C:0858H         LINE#         211
  C:0858H         LINE#         212
  C:0858H         LINE#         213
  C:0858H         LINE#         214
  C:085AH         LINE#         216
  C:085AH         LINE#         217
  C:085AH         LINE#         218
  C:085AH         LINE#         219
  C:085AH         LINE#         220
  C:085AH         LINE#         221
  C:085AH         LINE#         222
  C:085CH         LINE#         224
  C:085CH         LINE#         226
  C:085CH         LINE#         227
  C:085CH         LINE#         228
  C:085CH         LINE#         229
  C:085CH         LINE#         230
  C:0864H         LINE#         231
  C:0864H         LINE#         233
  C:0877H         LINE#         234
  C:0877H         LINE#         235
  C:0877H         LINE#         236
  C:0882H         LINE#         237
  C:0882H         LINE#         238
  C:0882H         LINE#         239
  C:0882H         LINE#         240
  C:0884H         LINE#         242
  C:0884H         LINE#         243
  C:0893H         LINE#         244
  C:0893H         LINE#         245
  C:0893H         LINE#         246
  C:0893H         LINE#         247
  C:0895H         LINE#         249
BL51 BANKED LINKER/LOCATER V6.22.4.0                                                  07/21/2026  18:51:08  PAGE 59


  C:0895H         LINE#         250
  C:08A0H         LINE#         251
  C:08A0H         LINE#         252
  C:08A8H         LINE#         253
  C:08A8H         LINE#         254
  C:08ABH         LINE#         256
  C:08ABH         LINE#         257
  C:08B3H         LINE#         258
  C:08B4H         LINE#         259
  C:08B4H         LINE#         260
  C:08B4H         LINE#         261
  C:08B4H         LINE#         262
  C:08B7H         LINE#         264
  C:08B7H         LINE#         266
  C:08B7H         LINE#         267
  C:08B7H         LINE#         268
  C:08B7H         LINE#         269
  C:08B7H         LINE#         270
  C:08B7H         LINE#         272
  C:08B7H         LINE#         280
  C:08C3H         LINE#         281
  C:08D5H         LINE#         282
  C:08D5H         LINE#         283
  C:08DFH         LINE#         289
  C:08E8H         LINE#         290
  C:08E8H         LINE#         291
  C:08EBH         LINE#         292
  C:08EBH         LINE#         294
  C:08FAH         LINE#         297
  C:08FAH         LINE#         299
  C:090BH         LINE#         300
  C:090BH         LINE#         301
  C:090BH         LINE#         302
  C:0913H         LINE#         303
  C:0913H         LINE#         307
  C:091DH         LINE#         309
  C:091DH         LINE#         310
  C:0920H         LINE#         312
  C:0920H         LINE#         313
  C:0928H         LINE#         314
  C:0928H         LINE#         318
  C:0932H         LINE#         320
  C:0932H         LINE#         321
  C:0935H         LINE#         323
  C:0935H         LINE#         324
  C:0941H         LINE#         325
  C:0941H         LINE#         329
  C:094BH         LINE#         331
  C:094BH         LINE#         332
  C:094DH         LINE#         334
  C:094DH         LINE#         335
  C:094DH         LINE#         336
  C:094DH         LINE#         337
  C:094DH         LINE#         338
  C:0952H         LINE#         339
  C:0952H         LINE#         341
  C:0960H         LINE#         342
BL51 BANKED LINKER/LOCATER V6.22.4.0                                                  07/21/2026  18:51:08  PAGE 60


  C:0960H         LINE#         343
  C:0960H         LINE#         344
  C:0968H         LINE#         345
  C:0968H         LINE#         349
  C:0972H         LINE#         351
  C:0972H         LINE#         352
  C:0974H         LINE#         354
  C:0974H         LINE#         355
  C:0983H         LINE#         356
  C:0983H         LINE#         360
  C:098DH         LINE#         362
  C:098DH         LINE#         363
  C:098FH         LINE#         365
  C:098FH         LINE#         366
  C:0997H         LINE#         367
  C:0997H         LINE#         371
  C:09A1H         LINE#         373
  C:09A1H         LINE#         374
  C:09A1H         LINE#         376
  C:09A1H         LINE#         377
  C:09A1H         LINE#         378
  C:09A1H         LINE#         379
  C:09A1H         LINE#         380
  C:09A1H         LINE#         381
  C:09A1H         LINE#         382
  C:09A1H         LINE#         398
  C:09B5H         LINE#         399
  C:09B5H         LINE#         400
  C:09B5H         LINE#         401
  C:09B5H         LINE#         403
  C:09BBH         LINE#         404
  C:09BBH         LINE#         405
  C:09BBH         LINE#         406
  C:09BEH         LINE#         407
  C:09C0H         LINE#         408
  C:09C1H         LINE#         409
  C:09C1H         LINE#         410
  C:09C1H         LINE#         411
  C:09C1H         LINE#         412
  C:09C4H         LINE#         413
  C:09C6H         LINE#         414
  C:09C7H         LINE#         415
  C:09C7H         LINE#         416
  C:09C9H         LINE#         417
  C:09CBH         LINE#         418
  C:09CBH         LINE#         419
  C:09CBH         LINE#         420
  C:09CDH         LINE#         421
  C:09CDH         LINE#         422
  C:09CFH         LINE#         423
  C:09D1H         LINE#         424
  C:09D1H         LINE#         425
  C:09D1H         LINE#         426
  C:09D3H         LINE#         427
  C:09D3H         LINE#         428
  C:09D5H         LINE#         429
  C:09D7H         LINE#         430
BL51 BANKED LINKER/LOCATER V6.22.4.0                                                  07/21/2026  18:51:08  PAGE 61


  C:09D9H         LINE#         431
  C:09DBH         LINE#         432
  C:09DBH         LINE#         433
  C:09DBH         LINE#         434
  -------         ENDPROC       LED_BAT_LEV_STA_DISCHARGE_HANDLE
  -------         PROC          LED_BAT_LEV_STA_ALERT_HANDLE
  -------         DO            
  X:620EH         SYMBOL        cnt
  -------         ENDDO         
  C:2642H         LINE#         436
  C:2642H         LINE#         437
  C:2642H         LINE#         440
  C:2642H         LINE#         441
  C:2642H         LINE#         442
  C:2645H         LINE#         444
  C:264FH         LINE#         445
  C:265EH         LINE#         446
  C:265EH         LINE#         447
  C:2662H         LINE#         448
  C:2667H         LINE#         449
  C:2667H         LINE#         450
  -------         ENDPROC       LED_BAT_LEV_STA_ALERT_HANDLE
  -------         PROC          LED_BAT_LEV_STA_IDLE_HANDLE
  C:0045H         LINE#         452
  C:0045H         LINE#         453
  C:0045H         LINE#         454
  C:0045H         LINE#         455
  C:0045H         LINE#         456
  C:0048H         LINE#         457
  C:004AH         LINE#         458
  -------         ENDPROC       LED_BAT_LEV_STA_IDLE_HANDLE
  -------         PROC          LED_BAT_LEV_STA_CHARGE_BEGIN_HANDLE
  C:28B4H         LINE#         460
  C:28B4H         LINE#         461
  C:28B4H         LINE#         462
  C:28B4H         LINE#         463
  C:28B4H         LINE#         464
  C:28B7H         LINE#         465
  C:28B9H         LINE#         466
  C:28BEH         LINE#         467
  C:28C2H         LINE#         468
  C:28C8H         LINE#         469
  -------         ENDPROC       LED_BAT_LEV_STA_CHARGE_BEGIN_HANDLE
  -------         PROC          LED_BAT_LEV_STA_CHARGE_BEGIN_ANIM_HANDLE
  C:1ED3H         LINE#         471
  C:1ED3H         LINE#         472
  C:1ED3H         LINE#         473
  C:1ED3H         LINE#         474
  C:1ED8H         LINE#         475
  C:1ED8H         LINE#         476
  C:1EDCH         LINE#         477
  C:1EEDH         LINE#         479
  C:1EEDH         LINE#         480
  C:1EEFH         LINE#         481
  C:1EF5H         LINE#         482
  C:1EF6H         LINE#         483
  C:1F08H         LINE#         485
BL51 BANKED LINKER/LOCATER V6.22.4.0                                                  07/21/2026  18:51:08  PAGE 62


  C:1F08H         LINE#         486
  C:1F0AH         LINE#         487
  C:1F10H         LINE#         488
  C:1F11H         LINE#         489
  C:1F23H         LINE#         491
  C:1F23H         LINE#         492
  C:1F25H         LINE#         493
  C:1F28H         LINE#         494
  C:1F2AH         LINE#         496
  C:1F2AH         LINE#         497
  C:1F31H         LINE#         500
  C:1F37H         LINE#         501
  C:1F37H         LINE#         502
  C:1F37H         LINE#         503
  -------         ENDPROC       LED_BAT_LEV_STA_CHARGE_BEGIN_ANIM_HANDLE
  -------         PROC          LED_BAT_LEV_STA_CHARGING_HANDLE
  -------         DO            
  X:6210H         SYMBOL        led_quick_fill_cnt
  -------         ENDDO         
  C:10BFH         LINE#         505
  C:10BFH         LINE#         506
  C:10BFH         LINE#         509
  C:10BFH         LINE#         512
  C:10CBH         LINE#         513
  C:10CBH         LINE#         514
  C:10D2H         LINE#         517
  C:10E3H         LINE#         518
  C:10E3H         LINE#         519
  C:10E3H         LINE#         520
  C:10E8H         LINE#         521
  C:10EAH         LINE#         522
  C:10EAH         LINE#         523
  C:10EFH         LINE#         524
  C:10F1H         LINE#         525
  C:10F1H         LINE#         526
  C:10F6H         LINE#         527
  C:10F8H         LINE#         528
  C:10F8H         LINE#         529
  C:10FDH         LINE#         530
  C:10FDH         LINE#         531
  C:10FDH         LINE#         532
  C:10FDH         LINE#         534
  C:110FH         LINE#         537
  C:110FH         LINE#         539
  C:1118H         LINE#         540
  C:1118H         LINE#         541
  C:111CH         LINE#         542
  C:111EH         LINE#         544
  C:111EH         LINE#         547
  C:112CH         LINE#         548
  C:112CH         LINE#         549
  C:1138H         LINE#         550
  C:1138H         LINE#         552
  C:1147H         LINE#         553
  C:1147H         LINE#         554
  C:1151H         LINE#         560
  C:1157H         LINE#         561
BL51 BANKED LINKER/LOCATER V6.22.4.0                                                  07/21/2026  18:51:08  PAGE 63


  C:115DH         LINE#         562
  C:115DH         LINE#         563
  C:115DH         LINE#         564
  C:115FH         LINE#         566
  C:115FH         LINE#         567
  C:1169H         LINE#         568
  C:1169H         LINE#         570
  C:1184H         LINE#         573
  C:1184H         LINE#         574
  C:118AH         LINE#         575
  C:118CH         LINE#         577
  C:118CH         LINE#         578
  C:118EH         LINE#         579
  C:11A9H         LINE#         582
  C:11A9H         LINE#         583
  C:11AFH         LINE#         584
  C:11B1H         LINE#         586
  C:11B1H         LINE#         587
  C:11B3H         LINE#         588
  C:11C5H         LINE#         591
  C:11C5H         LINE#         592
  C:11CBH         LINE#         593
  C:11CDH         LINE#         595
  C:11D2H         LINE#         596
  C:11D2H         LINE#         597
  -------         ENDPROC       LED_BAT_LEV_STA_CHARGING_HANDLE
  -------         PROC          LED_BAT_LEV_STA_CHARGE_END_HANDLE
  C:2979H         LINE#         599
  C:2979H         LINE#         600
  C:2979H         LINE#         602
  C:297BH         LINE#         603
  C:297DH         LINE#         604
  C:297FH         LINE#         605
  C:2981H         LINE#         606
  -------         ENDPROC       LED_BAT_LEV_STA_CHARGE_END_HANDLE
  -------         PROC          LED_BAT_LEV_DISLPLAY_1MS_ISR
  C:2497H         LINE#         608
  C:2497H         LINE#         609
  C:2497H         LINE#         610
  C:24B7H         LINE#         611
  C:24B7H         LINE#         612
  C:24B7H         LINE#         613
  C:24BAH         LINE#         614
  C:24BAH         LINE#         615
  C:24BAH         LINE#         616
  C:24BDH         LINE#         617
  C:24BDH         LINE#         619
  C:24BDH         LINE#         620
  C:24C0H         LINE#         621
  C:24C0H         LINE#         623
  C:24C0H         LINE#         624
  C:24C3H         LINE#         625
  C:24C3H         LINE#         627
  C:24C3H         LINE#         628
  C:24C6H         LINE#         629
  C:24C6H         LINE#         631
  C:24C6H         LINE#         632
BL51 BANKED LINKER/LOCATER V6.22.4.0                                                  07/21/2026  18:51:08  PAGE 64


  C:24C9H         LINE#         633
  C:24C9H         LINE#         635
  C:24C9H         LINE#         636
  C:24CCH         LINE#         637
  C:24CCH         LINE#         638
  C:24CCH         LINE#         639
  -------         ENDPROC       LED_BAT_LEV_DISLPLAY_1MS_ISR
  -------         ENDMOD        LED_BAT_LEV

  -------         MODULE        ?C?COPY
  C:011EH         PUBLIC        ?C?COPY
  -------         ENDMOD        ?C?COPY

  -------         MODULE        ?C?CLDPTR
  C:0144H         PUBLIC        ?C?CLDPTR
  -------         ENDMOD        ?C?CLDPTR

  -------         MODULE        ?C?CLDOPTR
  C:015DH         PUBLIC        ?C?CLDOPTR
  -------         ENDMOD        ?C?CLDOPTR

  -------         MODULE        ?C?CILDOPTR
  C:018AH         PUBLIC        ?C?CILDOPTR
  -------         ENDMOD        ?C?CILDOPTR

  -------         MODULE        ?C?CSTOPTR
  C:01BDH         PUBLIC        ?C?CSTOPTR
  -------         ENDMOD        ?C?CSTOPTR

  -------         MODULE        ?C?UIDIV
  C:01DFH         PUBLIC        ?C?UIDIV
  -------         ENDMOD        ?C?UIDIV

  -------         MODULE        ?C?IILDX
  C:0234H         PUBLIC        ?C?IILDX
  -------         ENDMOD        ?C?IILDX

  -------         MODULE        ?C?LADD
  C:024AH         PUBLIC        ?C?LADD
  -------         ENDMOD        ?C?LADD

  -------         MODULE        ?C?ULDIV
  C:0293H         PUBLIC        ?C?ULDIV
  -------         ENDMOD        ?C?ULDIV

  -------         MODULE        ?C?SLCMP
  C:0325H         PUBLIC        ?C?SLCMP
  -------         ENDMOD        ?C?SLCMP

  -------         MODULE        ?C?ULCMP
  C:033BH         PUBLIC        ?C?ULCMP
  -------         ENDMOD        ?C?ULCMP

  -------         MODULE        ?C?LLDXDATA
  C:034CH         PUBLIC        ?C?LLDXDATA
  -------         ENDMOD        ?C?LLDXDATA

BL51 BANKED LINKER/LOCATER V6.22.4.0                                                  07/21/2026  18:51:08  PAGE 65


  -------         MODULE        ?C?LLDXDATA0
  C:0358H         PUBLIC        ?C?LLDXDATA0
  -------         ENDMOD        ?C?LLDXDATA0

  -------         MODULE        ?C?LSTXDATA
  C:0364H         PUBLIC        ?C?LSTXDATA
  -------         ENDMOD        ?C?LSTXDATA

  -------         MODULE        ?C?LSTKXDATA
  C:0370H         PUBLIC        ?C?LSTKXDATA
  -------         ENDMOD        ?C?LSTKXDATA

  -------         MODULE        ?C?PLDXDATA
  C:03A1H         PUBLIC        ?C?PLDXDATA
  -------         ENDMOD        ?C?PLDXDATA

  -------         MODULE        ?C?PSTXDATA
  C:03AAH         PUBLIC        ?C?PSTXDATA
  -------         ENDMOD        ?C?PSTXDATA

  -------         MODULE        ?C?PLDOPTR
  C:03B3H         PUBLIC        ?C?PLDOPTR
  -------         ENDMOD        ?C?PLDOPTR

  -------         MODULE        ?C?CCASE
  C:03E3H         PUBLIC        ?C?CCASE
  -------         ENDMOD        ?C?CCASE

  -------         MODULE        ?C?ICALL
  C:0409H         PUBLIC        ?C?ICALL
  C:040DH         PUBLIC        ?C?ICALL2
  -------         ENDMOD        ?C?ICALL

  -------         MODULE        ?C?LIMUL
  C:040FH         PUBLIC        ?C?LIMUL
  -------         ENDMOD        ?C?LIMUL

  -------         MODULE        ?C?MEMSET
  C:043CH         PUBLIC        ?C?MEMSET
  -------         ENDMOD        ?C?MEMSET

  -------         MODULE        ?C?PLDIDATA
  C:0468H         PUBLIC        ?C?PLDIDATA
  -------         ENDMOD        ?C?PLDIDATA

  -------         MODULE        ?C?PLDPDATA
  C:0471H         PUBLIC        ?C?PLDPDATA
  -------         ENDMOD        ?C?PLDPDATA

  -------         MODULE        ?C?PLDCODE
  C:047AH         PUBLIC        ?C?PLDCODE
  -------         ENDMOD        ?C?PLDCODE

*** WARNING L15: MULTIPLE CALL TO SEGMENT
    SEGMENT: ?PR?_BAT_DISCHARGE_TIME_CNT_UPDATE?BATTERY_MONITOR
    CALLER1: ?PR?ADC_IRQHANDLER?ADC
    CALLER2: ?PR?TIMR0_IRQHANDLER?TIMER0
BL51 BANKED LINKER/LOCATER V6.22.4.0                                                  07/21/2026  18:51:08  PAGE 66



Program Size: data=9.5 xdata=572 code=10681
LINK/LOCATE RUN COMPLETE.  1 WARNING(S),  0 ERROR(S)
