BL51 BANKED LINKER/LOCATER V6.22.4.0                                                    07/07/2026  17:35:16  PAGE 1


BL51 BANKED LINKER/LOCATER V6.22.4.0, INVOKED BY:
C:\KEIL_V5\C51\BIN\BL51.EXE .\Release\Objects\STARTUP.obj, .\Release\Objects\system.obj, .\Release\Objects\adc.obj, .\Re
>> lease\Objects\pwm.obj, .\Release\Objects\timer0.obj, .\Release\Objects\timer1.obj, .\Release\Objects\uart0.obj, .\Rel
>> ease\Objects\main.obj, .\Release\Objects\uart_data_handle.obj, .\Release\Objects\key_driver.obj, .\Release\Objects\ad
>> _key.obj, .\Release\Objects\user_test.obj, .\Release\Objects\led.obj, .\Release\Objects\battery_monitor.obj, .\Releas
>> e\Objects\bluetooth_ic_handle.obj, .\Release\Objects\charge_det.obj, .\Release\Objects\low_power.obj TO .\Release\Obj
>> ects\Demo PRINT (.\Release\Listings\Demo.m51) RAMSIZE (256) CODE (0X0000-0X3EEF) XDATA (0X6000-0X66FF)


MEMORY MODEL: LARGE


INPUT MODULES INCLUDED:
  .\Release\Objects\STARTUP.obj (?C_STARTUP)
  .\Release\Objects\system.obj (SYSTEM)
  .\Release\Objects\adc.obj (ADC)
  .\Release\Objects\pwm.obj (PWM)
  .\Release\Objects\timer0.obj (TIMER0)
  .\Release\Objects\timer1.obj (TIMER1)
  .\Release\Objects\uart0.obj (UART0)
  .\Release\Objects\main.obj (MAIN)
  .\Release\Objects\uart_data_handle.obj (UART_DATA_HANDLE)
  .\Release\Objects\key_driver.obj (KEY_DRIVER)
  .\Release\Objects\ad_key.obj (AD_KEY)
  .\Release\Objects\user_test.obj (USER_TEST)
  .\Release\Objects\led.obj (LED)
  .\Release\Objects\battery_monitor.obj (BATTERY_MONITOR)
  .\Release\Objects\bluetooth_ic_handle.obj (BLUETOOTH_IC_HANDLE)
  .\Release\Objects\charge_det.obj (CHARGE_DET)
  .\Release\Objects\low_power.obj (LOW_POWER)
  C:\KEIL_V5\C51\LIB\C51L.LIB (?C_INIT)
  C:\KEIL_V5\C51\LIB\C51L.LIB (?C?COPY)
  C:\KEIL_V5\C51\LIB\C51L.LIB (?C?CLDPTR)
  C:\KEIL_V5\C51\LIB\C51L.LIB (?C?CLDOPTR)
  C:\KEIL_V5\C51\LIB\C51L.LIB (?C?CILDOPTR)
  C:\KEIL_V5\C51\LIB\C51L.LIB (?C?CSTOPTR)
  C:\KEIL_V5\C51\LIB\C51L.LIB (?C?UIDIV)
  C:\KEIL_V5\C51\LIB\C51L.LIB (?C?IILDX)
  C:\KEIL_V5\C51\LIB\C51L.LIB (?C?LADD)
  C:\KEIL_V5\C51\LIB\C51L.LIB (?C?ULDIV)
  C:\KEIL_V5\C51\LIB\C51L.LIB (?C?SLCMP)
  C:\KEIL_V5\C51\LIB\C51L.LIB (?C?ULCMP)
  C:\KEIL_V5\C51\LIB\C51L.LIB (?C?LLDXDATA)
  C:\KEIL_V5\C51\LIB\C51L.LIB (?C?LLDXDATA0)
  C:\KEIL_V5\C51\LIB\C51L.LIB (?C?LSTXDATA)
  C:\KEIL_V5\C51\LIB\C51L.LIB (?C?LSTKXDATA)
  C:\KEIL_V5\C51\LIB\C51L.LIB (?C?PLDXDATA)
  C:\KEIL_V5\C51\LIB\C51L.LIB (?C?PSTXDATA)
  C:\KEIL_V5\C51\LIB\C51L.LIB (?C?PLDOPTR)
  C:\KEIL_V5\C51\LIB\C51L.LIB (?C?CCASE)
  C:\KEIL_V5\C51\LIB\C51L.LIB (?C?ICALL)
  C:\KEIL_V5\C51\LIB\C51L.LIB (?C?LIMUL)
  C:\KEIL_V5\C51\LIB\C51L.LIB (PRINTF)
  C:\KEIL_V5\C51\LIB\C51L.LIB (?C?MEMSET)
  C:\KEIL_V5\C51\LIB\C51L.LIB (?C?CSTPTR)
  C:\KEIL_V5\C51\LIB\C51L.LIB (?C?PLDIDATA)
  C:\KEIL_V5\C51\LIB\C51L.LIB (?C?PLDIXDATA)
  C:\KEIL_V5\C51\LIB\C51L.LIB (?C?PLDPDATA)
BL51 BANKED LINKER/LOCATER V6.22.4.0                                                  07/07/2026  17:35:16  PAGE 2


  C:\KEIL_V5\C51\LIB\C51L.LIB (?C?PLDCODE)


LINK MAP OF MODULE:  .\Release\Objects\Demo (?C_STARTUP)


            TYPE    BASE      LENGTH    RELOCATION   SEGMENT NAME
            -----------------------------------------------------

            * * * * * * *   D A T A   M E M O R Y   * * * * * * *
            REG     0000H     0008H     ABSOLUTE     "REG BANK 0"
            DATA    0008H     000AH     UNIT         _DATA_GROUP_
                    0012H     000EH                  *** GAP ***
            BIT     0020H.0   0002H.2   UNIT         _BIT_GROUP_
            BIT     0022H.2   0000H.4   UNIT         ?BI?ADC
            BIT     0022H.6   0000H.1   UNIT         ?BI?CHARGE_DET
                    0022H.7   0000H.1                *** GAP ***
            IDATA   0023H     0001H     UNIT         ?STACK

            * * * * * * *  X D A T A   M E M O R Y  * * * * * * *
                    0000H     6000H                  *** GAP ***
            XDATA   6000H     0206H     UNIT         ?XD?UART0
            XDATA   6206H     005FH     UNIT         _XDATA_GROUP_
            XDATA   6265H     0039H     UNIT         ?XD?AD_KEY
            XDATA   629EH     0034H     UNIT         ?XD?BATTERY_MONITOR
            XDATA   62D2H     0027H     UNIT         ?XD?CHARGE_DET
            XDATA   62F9H     001AH     UNIT         ?XD?UART_DATA_HANDLE
            XDATA   6313H     0013H     UNIT         ?XD?LED
            XDATA   6326H     0009H     UNIT         ?XD?ADC
            XDATA   632FH     0006H     UNIT         ?XD?LOW_POWER
            XDATA   6335H     0004H     UNIT         ?XD?KEY_DRIVER
            XDATA   6339H     0003H     UNIT         ?XD?USER_TEST
            XDATA   633CH     0002H     UNIT         ?XD?BLUETOOTH_IC_HANDLE

            * * * * * * *   C O D E   M E M O R Y   * * * * * * *
            CODE    0000H     0003H     ABSOLUTE     
            CODE    0003H     000CH     ABSOLUTE     
            CODE    000FH     000FH     UNIT         ?PR?UART_RECEIVER_TIMEOUT_ADD?UART_DATA_HANDLE
            CODE    001EH     0003H     ABSOLUTE     
            CODE    0021H     0003H     ABSOLUTE     
            CODE    0024H     001BH     UNIT         ?PR?_ADC_CLEAR_UPDATE_FLAG?ADC
            CODE    003FH     0003H     ABSOLUTE     
            CODE    0042H     0003H     ABSOLUTE     
            CODE    0045H     0003H     UNIT         ?PR?CHARGE_DET_TIME_ADD?CHARGE_DET
                    0048H     0003H                  *** GAP ***
            CODE    004BH     0003H     ABSOLUTE     
            CODE    004EH     0461H     UNIT         ?C?LIB_CODE
            CODE    04AFH     0384H     UNIT         ?C_INITSEG
            CODE    0833H     0365H     UNIT         ?PR?PRINTF?PRINTF
            CODE    0B98H     01C2H     UNIT         ?PR?LOW_POWER_HANDLE?LOW_POWER
            CODE    0D5AH     01B2H     UNIT         ?PR?LED_BAT_INSTRUCTION_TIMER_CALLBACK?LED
            CODE    0F0CH     01AAH     UNIT         ?PR?DETECT_1KHZ_SIGNAL_100US?CHARGE_DET
            CODE    10B6H     0193H     UNIT         ?PR?_KEY_DRIVER_SCAN?KEY_DRIVER
            CODE    1249H     018EH     UNIT         ?PR?BATTERY_MONITOR_HANDLE?BATTERY_MONITOR
            CODE    13D7H     0157H     UNIT         ?PR?DETECT_DISCHARGE_1KHZ_SIGNAL_100US?CHARGE_DET
            CODE    152EH     012BH     UNIT         ?PR?CHARGE_DET?CHARGE_DET
            CODE    1659H     011FH     UNIT         ?PR?LED_SLOW_ADJUST_ISR?LED
BL51 BANKED LINKER/LOCATER V6.22.4.0                                                  07/07/2026  17:35:16  PAGE 3


            CODE    1778H     010BH     UNIT         ?PR?LOW_POWER_IN?LOW_POWER
            CODE    1883H     00EAH     UNIT         ?PR?LED_RED_BLUE_FLASH_1MS_ISR?LED
            CODE    196DH     00DAH     UNIT         ?CO?UART_DATA_HANDLE
            CODE    1A47H     00DAH     UNIT         ?PR?BATTERY_VOLTAGE_UPDATE_BY_ISR?BATTERY_MONITOR
            CODE    1B21H     00CFH     UNIT         ?PR?SYSTEM_INIT?SYSTEM
            CODE    1BF0H     00B9H     UNIT         ?PR?LED
            CODE    1CA9H     00B5H     UNIT         ?PR?UART_DATA_HANDLE?UART_DATA_HANDLE
            CODE    1D5EH     00ADH     UNIT         ?PR?AD_KEY_HANDLE?AD_KEY
            CODE    1E0BH     00A9H     UNIT         ?PR?_UART_RECEIVER_PROCESS_BYTE?UART_DATA_HANDLE
            CODE    1EB4H     008FH     UNIT         ?CO?LOW_POWER
            CODE    1F43H     008CH     UNIT         ?C_C51STARTUP
            CODE    1FCFH     008BH     UNIT         ?PR?PWM_INIT?PWM
            CODE    205AH     0087H     UNIT         ?PR?ADC_IRQHANDLER?ADC
            CODE    20E1H     0082H     UNIT         ?PR?_GET_BATTERY_PERCENTAGE_BY_VOLTAGE?BATTERY_MONITOR
            CODE    2163H     0074H     UNIT         ?PR?_LED_STATUS_SET?LED
            CODE    21D7H     0074H     UNIT         ?CO?BATTERY_MONITOR
            CODE    224BH     0072H     UNIT         ?PR?BATTERY_MONITOR
            CODE    22BDH     006FH     UNIT         ?PR?TIMR0_IRQHANDLER?TIMER0
            CODE    232CH     0066H     UNIT         ?PR?ADC_SCAN?ADC
            CODE    2392H     0066H     UNIT         ?PR?SEND_LOW_BAT_TIMER_CALLBACK?BATTERY_MONITOR
            CODE    23F8H     0059H     UNIT         ?PR?UART_RECEIVER_TIMEOUT_HANDLER?UART_DATA_HANDLE
            CODE    2451H     004EH     UNIT         ?PR?LED_INIT?LED
            CODE    249FH     004DH     UNIT         ?PR?MAIN?MAIN
            CODE    24ECH     004CH     UNIT         ?PR?_AD_KEY_VAL_TO_AD_KEY_INDEX?AD_KEY
            CODE    2538H     004CH     UNIT         ?PR?LOW_POWER_OUT?LOW_POWER
            CODE    2584H     004BH     UNIT         ?PR?_ADC_CHANNEL_SEL?ADC
            CODE    25CFH     004AH     UNIT         ?PR?_AD_KEY_GET_EVENT?AD_KEY
            CODE    2619H     0048H     UNIT         ?PR?TIMR1_IRQHANDLER?TIMER1
            CODE    2661H     0046H     UNIT         ?PR?BAT_VOL_HISTORY_BUFF_GET_AVG?BATTERY_MONITOR
            CODE    26A7H     0045H     UNIT         ?PR?_UART_DATA_SEND_CMD?UART_DATA_HANDLE
            CODE    26ECH     0041H     UNIT         ?PR?_UART0_RXBUFFER_PUT_BYTE?UART0
            CODE    272DH     003DH     UNIT         ?PR?_ADC_UPDATE_VAL?ADC
            CODE    276AH     003CH     UNIT         ?PR?UART0_RXBUFFER_GET_BYTE?UART0
            CODE    27A6H     003AH     UNIT         ?PR?UART0_INIT?UART0
            CODE    27E0H     0039H     UNIT         ?PR?BAT_VOL_UPDATE_TIMER_CALLBACK?BATTERY_MONITOR
            CODE    2819H     0037H     UNIT         ?PR?UART_DATA_HANDLE
            CODE    2850H     0036H     UNIT         ?PR?UART_RECEIVER_PROCESS_CHECKSUM?UART_DATA_HANDLE
            CODE    2886H     0034H     UNIT         ?PR?UART0_IRQHANDLER?UART0
            CODE    28BAH     0033H     UNIT         ?PR?AD_KEY_GET_KEY_VAL?AD_KEY
            CODE    28EDH     0033H     UNIT         ?PR?LOW_POWER_ENTER_TIMER_CALLBACK?LOW_POWER
            CODE    2920H     002EH     UNIT         ?PR?_ADC_GET_VAL?ADC
            CODE    294EH     002EH     UNIT         ?PR?ADC
            CODE    297CH     002DH     UNIT         ?PR?USER_INIT?MAIN
            CODE    29A9H     002BH     UNIT         ?PR?BAT_VOL_BUFF_GET_AVG_TIMER_CALLBACK?BATTERY_MONITOR
            CODE    29D4H     002BH     UNIT         ?PR?CHARGE_DET
            CODE    29FFH     002AH     UNIT         ?PR?LED_STATUS_SWITCH?LED
            CODE    2A29H     002AH     UNIT         ?PR?BAT_VOL_BUFF_ADD_TIMER_CALLBACK?BATTERY_MONITOR
            CODE    2A53H     0029H     UNIT         ?CO?BLUETOOTH_IC_HANDLE
            CODE    2A7CH     0025H     UNIT         ?PR?_ADC_GET_UPDATE_FLAG?ADC
            CODE    2AA1H     0024H     UNIT         ?PR?IS_LOW_POWER_CONDITION_ESTABLISH?LOW_POWER
            CODE    2AC5H     0023H     UNIT         ?PR?_UART0_SENDBUF?UART0
            CODE    2AE8H     0022H     UNIT         ?PR?ADC_INIT?ADC
            CODE    2B0AH     0022H     UNIT         ?PR?_BAT_VOL_HISTORY_BUFF_ADD?BATTERY_MONITOR
            CODE    2B2CH     0021H     UNIT         ?PR?KEY_DRIVER
            CODE    2B4DH     0021H     UNIT         ?PR?DEBUG_TIME_ADD?USER_TEST
            CODE    2B6EH     001DH     UNIT         ?CO?AD_KEY
            CODE    2B8BH     001DH     UNIT         ?PR?BLE_IC_ENABLE?BLUETOOTH_IC_HANDLE
BL51 BANKED LINKER/LOCATER V6.22.4.0                                                  07/07/2026  17:35:16  PAGE 4


            CODE    2BA8H     001BH     UNIT         ?PR?TIMER0_INIT?TIMER0
            CODE    2BC3H     001BH     UNIT         ?PR?TIMER1_INIT?TIMER1
            CODE    2BDEH     001AH     UNIT         ?PR?BLUETOOTH_IC_HANDLE_INIT?BLUETOOTH_IC_HANDLE
            CODE    2BF8H     0019H     UNIT         ?PR?CHARGE_DET_INIT?CHARGE_DET
            CODE    2C11H     0018H     UNIT         ?PR?_DELAY_MS?SYSTEM
            CODE    2C29H     0018H     UNIT         ?PR?WUT_IRQHANDLER?LOW_POWER
            CODE    2C41H     0017H     UNIT         ?PR?ADC_GET_VAL_ONCE?ADC
            CODE    2C58H     0017H     UNIT         ?PR?BAT_PERCENT_UPDATE_TIME_ADD?BATTERY_MONITOR
            CODE    2C6FH     0016H     UNIT         ?PR?PWM
            CODE    2C85H     0016H     UNIT         ?PR?_BAT_VOL_HISTORY_BUFF_INIT?BATTERY_MONITOR
            CODE    2C9BH     0015H     UNIT         ?PR?BAT_PERCENT_UPDATE_TIME_IS_COMES?BATTERY_MONITOR
            CODE    2CB0H     0014H     UNIT         ?PR?LOW_POWER
            CODE    2CC4H     0012H     UNIT         ?PR?ADC_INIT_WHEN_LOW_PWR_OUT?ADC
            CODE    2CD6H     0012H     UNIT         ?PR?UART_RECEIVER_RESET?UART_DATA_HANDLE
            CODE    2CE8H     0012H     UNIT         ?PR?USER_DEBUG_PIN_INIT?USER_TEST
            CODE    2CFAH     0011H     UNIT         ?PR?ADC_PIN_INIT?ADC
            CODE    2D0BH     0010H     UNIT         ?PR?_GET_BATTERY_VOLTAGE_BY_ADC?BATTERY_MONITOR
            CODE    2D1BH     0010H     UNIT         ?PR?BLE_IC_DISABLE_POST?BLUETOOTH_IC_HANDLE
            CODE    2D2BH     000FH     UNIT         ?PR?AD_KEY
            CODE    2D3AH     000FH     UNIT         ?PR?LED_CTL_INIT?LED
            CODE    2D49H     000EH     UNIT         ?PR?BLE_IC_DISABLE_PRE?BLUETOOTH_IC_HANDLE
            CODE    2D57H     000DH     UNIT         ?PR?LED_YELLOW_ON?LED
            CODE    2D64H     000DH     UNIT         ?PR?LED_WHITE_ON?LED
            CODE    2D71H     000BH     UNIT         ?PR?_DELAY?SYSTEM
            CODE    2D7CH     000AH     UNIT         ?CO?MAIN
            CODE    2D86H     0009H     UNIT         ?PR?_PWM_SET_CHANNEL_0_DUTY?PWM
            CODE    2D8FH     0009H     UNIT         ?PR?_PWM_SET_CHANNEL_1_DUTY?PWM
            CODE    2D98H     0009H     UNIT         ?PR?UART0_RXBUFFER_GET_COUNT?UART0
            CODE    2DA1H     0008H     UNIT         ?PR?_PUTCHAR?UART0
            CODE    2DA9H     0008H     UNIT         ?PR?_UART0_SENDBYTE?UART0
            CODE    2DB1H     0008H     UNIT         ?PR?LED_YELLOW_OFF?LED
            CODE    2DB9H     0008H     UNIT         ?PR?LED_WHITE_OFF?LED
            CODE    2DC1H     0008H     UNIT         ?PR?BAT_PERCENT_UPDATE_TIME_RESET?BATTERY_MONITOR
            CODE    2DC9H     0007H     UNIT         ?PR?UART0



OVERLAY MAP OF MODULE:   .\Release\Objects\Demo (?C_STARTUP)


SEGMENT                                             BIT_GROUP          DATA_GROUP          XDATA_GROUP
  +--> CALLED SEGMENT                            START    LENGTH     START    LENGTH     START    LENGTH
--------------------------------------------------------------------------------------------------------
?C_C51STARTUP                                    -----    -----      -----    -----      -----    -----
  +--> ?PR?MAIN?MAIN
  +--> ?C_INITSEG

?PR?MAIN?MAIN                                    -----    -----      -----    -----      -----    -----
  +--> ?PR?SYSTEM_INIT?SYSTEM
  +--> ?PR?USER_INIT?MAIN
  +--> ?PR?_DELAY_MS?SYSTEM
  +--> ?PR?_KEY_DRIVER_SCAN?KEY_DRIVER
  +--> ?PR?AD_KEY_HANDLE?AD_KEY
  +--> ?PR?UART_DATA_HANDLE?UART_DATA_HANDLE
  +--> ?PR?BATTERY_MONITOR_HANDLE?BATTERY_MO...
  +--> ?PR?CHARGE_DET?CHARGE_DET
  +--> ?PR?LOW_POWER_HANDLE?LOW_POWER
BL51 BANKED LINKER/LOCATER V6.22.4.0                                                  07/07/2026  17:35:16  PAGE 5



?PR?SYSTEM_INIT?SYSTEM                           -----    -----      -----    -----      -----    -----
  +--> ?PR?_DELAY?SYSTEM
  +--> ?PR?_DELAY_MS?SYSTEM

?PR?_DELAY_MS?SYSTEM                             -----    -----      -----    -----      -----    -----
  +--> ?PR?_DELAY?SYSTEM

?PR?USER_INIT?MAIN                               -----    -----      -----    -----      -----    -----
  +--> ?PR?ADC_PIN_INIT?ADC
  +--> ?PR?ADC_INIT?ADC
  +--> ?PR?LED_INIT?LED
  +--> ?PR?UART0_INIT?UART0
  +--> ?PR?PWM_INIT?PWM
  +--> ?PR?BLUETOOTH_IC_HANDLE_INIT?BLUETOOT...
  +--> ?PR?UART_RECEIVER_RESET?UART_DATA_HANDLE
  +--> ?PR?LED_CTL_INIT?LED
  +--> ?PR?CHARGE_DET_INIT?CHARGE_DET
  +--> ?PR?TIMER0_INIT?TIMER0
  +--> ?PR?TIMER1_INIT?TIMER1
  +--> ?PR?USER_DEBUG_PIN_INIT?USER_TEST
  +--> ?CO?MAIN
  +--> ?PR?PRINTF?PRINTF

?PR?ADC_INIT?ADC                                 -----    -----      -----    -----      -----    -----
  +--> ?PR?_DELAY_MS?SYSTEM

?PR?LED_INIT?LED                                 -----    -----      -----    -----      -----    -----
  +--> ?PR?LED

?PR?PWM_INIT?PWM                                 -----    -----      -----    -----      -----    -----
  +--> ?PR?PWM

?PR?PRINTF?PRINTF                                0021H.1  0001H.1    000DH    0005H      6239H    0028H
  +--> ?PR?_PUTCHAR?UART0

?PR?_KEY_DRIVER_SCAN?KEY_DRIVER                  -----    -----      -----    -----      6206H    0002H
  +--> ?PR?KEY_DRIVER

?PR?AD_KEY_HANDLE?AD_KEY                         -----    -----      -----    -----      6206H    0001H
  +--> ?PR?_AD_KEY_GET_EVENT?AD_KEY
  +--> ?CO?AD_KEY
  +--> ?PR?PRINTF?PRINTF
  +--> ?PR?LED_STATUS_SWITCH?LED
  +--> ?PR?_UART_DATA_SEND_CMD?UART_DATA_HANDLE
  +--> ?PR?BLE_IC_DISABLE_PRE?BLUETOOTH_IC_H...
  +--> ?PR?BLE_IC_ENABLE?BLUETOOTH_IC_HANDLE

?PR?_AD_KEY_GET_EVENT?AD_KEY                     -----    -----      -----    -----      -----    -----
  +--> ?PR?AD_KEY

?PR?LED_STATUS_SWITCH?LED                        -----    -----      -----    -----      -----    -----
  +--> ?PR?_LED_STATUS_SET?LED

?PR?_LED_STATUS_SET?LED                          -----    -----      -----    -----      6207H    0001H
  +--> ?PR?LED_YELLOW_OFF?LED
  +--> ?PR?LED_WHITE_OFF?LED
BL51 BANKED LINKER/LOCATER V6.22.4.0                                                  07/07/2026  17:35:16  PAGE 6


  +--> ?PR?LED_WHITE_ON?LED
  +--> ?PR?LED_YELLOW_ON?LED

?PR?LED_WHITE_ON?LED                             -----    -----      -----    -----      -----    -----
  +--> ?PR?_PWM_SET_CHANNEL_1_DUTY?PWM

?PR?_PWM_SET_CHANNEL_1_DUTY?PWM                  -----    -----      -----    -----      -----    -----
  +--> ?PR?PWM

?PR?LED_YELLOW_ON?LED                            -----    -----      -----    -----      -----    -----
  +--> ?PR?_PWM_SET_CHANNEL_0_DUTY?PWM

?PR?_PWM_SET_CHANNEL_0_DUTY?PWM                  -----    -----      -----    -----      -----    -----
  +--> ?PR?PWM

?PR?_UART_DATA_SEND_CMD?UART_DATA_HANDLE         -----    -----      -----    -----      6207H    0009H
  +--> ?CO?UART_DATA_HANDLE
  +--> ?PR?_UART0_SENDBUF?UART0

?PR?_UART0_SENDBUF?UART0                         -----    -----      -----    -----      6210H    0003H
  +--> ?PR?_UART0_SENDBYTE?UART0

?PR?BLE_IC_DISABLE_PRE?BLUETOOTH_IC_H...         -----    -----      -----    -----      -----    -----
  +--> ?PR?_UART_DATA_SEND_CMD?UART_DATA_HANDLE
  +--> ?CO?BLUETOOTH_IC_HANDLE
  +--> ?PR?PRINTF?PRINTF

?PR?BLE_IC_ENABLE?BLUETOOTH_IC_HANDLE            -----    -----      -----    -----      -----    -----
  +--> ?PR?_DELAY_MS?SYSTEM
  +--> ?PR?_UART_DATA_SEND_CMD?UART_DATA_HANDLE
  +--> ?CO?BLUETOOTH_IC_HANDLE
  +--> ?PR?PRINTF?PRINTF

?PR?UART_DATA_HANDLE?UART_DATA_HANDLE            -----    -----      -----    -----      6206H    0002H
  +--> ?PR?UART_RECEIVER_RESET?UART_DATA_HANDLE
  +--> ?PR?UART_RECEIVER_TIMEOUT_HANDLER?UAR...
  +--> ?PR?UART0_RXBUFFER_GET_COUNT?UART0
  +--> ?PR?UART0_RXBUFFER_GET_BYTE?UART0
  +--> ?PR?_UART_RECEIVER_PROCESS_BYTE?UART_...
  +--> ?CO?UART_DATA_HANDLE
  +--> ?PR?PRINTF?PRINTF
  +--> ?PR?UART_DATA_HANDLE
  +--> ?PR?BLE_IC_DISABLE_POST?BLUETOOTH_IC_...

?PR?UART_RECEIVER_TIMEOUT_HANDLER?UAR...         -----    -----      -----    -----      6208H    0001H
  +--> ?CO?UART_DATA_HANDLE
  +--> ?PR?UART_DATA_HANDLE
  +--> ?PR?PRINTF?PRINTF
  +--> ?PR?UART_RECEIVER_RESET?UART_DATA_HANDLE

?PR?UART0_RXBUFFER_GET_BYTE?UART0                -----    -----      -----    -----      -----    -----
  +--> ?PR?UART0

?PR?_UART_RECEIVER_PROCESS_BYTE?UART_...         -----    -----      -----    -----      6208H    0001H
  +--> ?PR?UART_DATA_HANDLE
  +--> ?PR?UART_RECEIVER_PROCESS_CHECKSUM?UA...

BL51 BANKED LINKER/LOCATER V6.22.4.0                                                  07/07/2026  17:35:16  PAGE 7


?PR?UART_RECEIVER_PROCESS_CHECKSUM?UA...         -----    -----      -----    -----      -----    -----
  +--> ?PR?UART_DATA_HANDLE
  +--> ?CO?UART_DATA_HANDLE
  +--> ?PR?PRINTF?PRINTF

?PR?BLE_IC_DISABLE_POST?BLUETOOTH_IC_...         -----    -----      -----    -----      -----    -----
  +--> ?CO?BLUETOOTH_IC_HANDLE
  +--> ?PR?PRINTF?PRINTF

?PR?BATTERY_MONITOR_HANDLE?BATTERY_MO...         -----    -----      -----    -----      -----    -----
  +--> ?PR?_BAT_VOL_HISTORY_BUFF_ADD?BATTERY...
  +--> ?PR?BAT_VOL_HISTORY_BUFF_GET_AVG?BATT...
  +--> ?PR?BATTERY_MONITOR
  +--> ?PR?PRINTF?PRINTF
  +--> ?PR?_GET_BATTERY_PERCENTAGE_BY_VOLTAG...
  +--> ?PR?BAT_PERCENT_UPDATE_TIME_IS_COMES?...
  +--> ?PR?BAT_PERCENT_UPDATE_TIME_RESET?BAT...
  +--> ?CO?BATTERY_MONITOR
  +--> ?PR?_LED_STATUS_SET?LED
  +--> ?PR?_UART_DATA_SEND_CMD?UART_DATA_HANDLE
  +--> ?PR?_DELAY_MS?SYSTEM
  +--> ?PR?BLE_IC_DISABLE_PRE?BLUETOOTH_IC_H...
  +--> ?PR?BLE_IC_ENABLE?BLUETOOTH_IC_HANDLE

?PR?_BAT_VOL_HISTORY_BUFF_ADD?BATTERY...         -----    -----      -----    -----      -----    -----
  +--> ?PR?BATTERY_MONITOR

?PR?BATTERY_MONITOR                              -----    -----      -----    -----      -----    -----
  +--> ?CO?BATTERY_MONITOR

?PR?BAT_VOL_HISTORY_BUFF_GET_AVG?BATT...         -----    -----      -----    -----      6206H    0005H
  +--> ?PR?BATTERY_MONITOR

?PR?_GET_BATTERY_PERCENTAGE_BY_VOLTAG...         -----    -----      -----    -----      6239H    0006H
  +--> ?PR?BATTERY_MONITOR

?PR?CHARGE_DET?CHARGE_DET                        -----    -----      -----    -----      6206H    0002H
  +--> ?PR?_ADC_GET_UPDATE_FLAG?ADC
  +--> ?PR?_ADC_CLEAR_UPDATE_FLAG?ADC
  +--> ?PR?_ADC_GET_VAL?ADC
  +--> ?PR?CHARGE_DET

?PR?LOW_POWER_HANDLE?LOW_POWER                   -----    -----      -----    -----      6206H    0005H
  +--> ?PR?LOW_POWER
  +--> ?CO?LOW_POWER
  +--> ?PR?LOW_POWER_IN?LOW_POWER
  +--> ?PR?LOW_POWER_OUT?LOW_POWER
  +--> ?PR?UART0_INIT?UART0
  +--> ?PR?PRINTF?PRINTF
  +--> ?PR?ADC_PIN_INIT?ADC
  +--> ?PR?ADC_INIT_WHEN_LOW_PWR_OUT?ADC
  +--> ?PR?_ADC_CHANNEL_SEL?ADC
  +--> ?PR?_DELAY_MS?SYSTEM
  +--> ?PR?ADC_GET_VAL_ONCE?ADC
  +--> ?PR?_GET_BATTERY_VOLTAGE_BY_ADC?BATTE...
  +--> ?PR?_GET_BATTERY_PERCENTAGE_BY_VOLTAG...
  +--> ?PR?_BAT_VOL_HISTORY_BUFF_INIT?BATTER...
BL51 BANKED LINKER/LOCATER V6.22.4.0                                                  07/07/2026  17:35:16  PAGE 8


  +--> ?PR?USER_INIT?MAIN

?PR?LOW_POWER_IN?LOW_POWER                       -----    -----      -----    -----      -----    -----
  +--> ?PR?_DELAY_MS?SYSTEM

?PR?LOW_POWER_OUT?LOW_POWER                      -----    -----      -----    -----      -----    -----
  +--> ?PR?UART0_INIT?UART0

?PR?ADC_GET_VAL_ONCE?ADC                         -----    -----      -----    -----      -----    -----
  +--> ?PR?ADC

?PR?ADC                                          -----    -----      -----    -----      -----    -----
  +--> ?PR?_ADC_CHANNEL_SEL?ADC

?PR?_BAT_VOL_HISTORY_BUFF_INIT?BATTER...         -----    -----      -----    -----      -----    -----
  +--> ?PR?BATTERY_MONITOR

?C_INITSEG                                       -----    -----      -----    -----      -----    -----
  +--> ?PR?AD_KEY_GET_KEY_VAL?AD_KEY

?PR?AD_KEY_GET_KEY_VAL?AD_KEY                    -----    -----      -----    -----      6206H    0001H
  +--> ?PR?_ADC_GET_UPDATE_FLAG?ADC
  +--> ?PR?_ADC_CLEAR_UPDATE_FLAG?ADC
  +--> ?PR?_ADC_GET_VAL?ADC
  +--> ?PR?_AD_KEY_VAL_TO_AD_KEY_INDEX?AD_KEY

?PR?_AD_KEY_VAL_TO_AD_KEY_INDEX?AD_KEY           -----    -----      -----    -----      6207H    0002H

*** NEW ROOT ***************************************************

?PR?ADC_IRQHANDLER?ADC                           -----    -----      -----    -----      6233H    0002H
  +--> ?PR?ADC
  +--> ?PR?_ADC_UPDATE_VAL?ADC
  +--> ?PR?BATTERY_VOLTAGE_UPDATE_BY_ISR?BAT...

?PR?BATTERY_VOLTAGE_UPDATE_BY_ISR?BAT...         -----    -----      -----    -----      6235H    0004H
  +--> ?PR?_ADC_GET_UPDATE_FLAG?ADC
  +--> ?PR?_ADC_CLEAR_UPDATE_FLAG?ADC
  +--> ?PR?_ADC_GET_VAL?ADC
  +--> ?PR?_GET_BATTERY_VOLTAGE_BY_ADC?BATTE...
  +--> ?PR?BATTERY_MONITOR
  +--> ?PR?_BAT_VOL_HISTORY_BUFF_INIT?BATTER...
  +--> ?PR?_GET_BATTERY_PERCENTAGE_BY_VOLTAG...
  +--> ?CO?BATTERY_MONITOR
  +--> ?PR?PRINTF?PRINTF

*** NEW ROOT ***************************************************

?PR?TIMR0_IRQHANDLER?TIMER0                      -----    -----      -----    -----      -----    -----
  +--> ?PR?ADC_SCAN?ADC
  +--> ?PR?CHARGE_DET_TIME_ADD?CHARGE_DET
  +--> ?PR?UART_RECEIVER_TIMEOUT_ADD?UART_DA...
  +--> ?PR?BAT_VOL_UPDATE_TIMER_CALLBACK?BAT...
  +--> ?PR?BAT_VOL_BUFF_ADD_TIMER_CALLBACK?B...
  +--> ?PR?BAT_VOL_BUFF_GET_AVG_TIMER_CALLBA...
  +--> ?PR?LED_SLOW_ADJUST_ISR?LED
  +--> ?PR?LED_RED_BLUE_FLASH_1MS_ISR?LED
BL51 BANKED LINKER/LOCATER V6.22.4.0                                                  07/07/2026  17:35:16  PAGE 9


  +--> ?PR?LED_BAT_INSTRUCTION_TIMER_CALLBAC...
  +--> ?PR?LOW_POWER_ENTER_TIMER_CALLBACK?LO...
  +--> ?PR?SEND_LOW_BAT_TIMER_CALLBACK?BATTE...
  +--> ?PR?BAT_PERCENT_UPDATE_TIME_ADD?BATTE...
  +--> ?PR?DEBUG_TIME_ADD?USER_TEST

?PR?ADC_SCAN?ADC                                 -----    -----      -----    -----      -----    -----
  +--> ?PR?ADC

?PR?BAT_VOL_BUFF_ADD_TIMER_CALLBACK?B...         -----    -----      -----    -----      -----    -----
  +--> ?PR?BATTERY_MONITOR

?PR?BAT_VOL_BUFF_GET_AVG_TIMER_CALLBA...         -----    -----      -----    -----      -----    -----
  +--> ?PR?BATTERY_MONITOR

?PR?LED_SLOW_ADJUST_ISR?LED                      -----    -----      -----    -----      -----    -----
  +--> ?PR?LED
  +--> ?PR?_PWM_SET_CHANNEL_0_DUTY?PWM
  +--> ?PR?_PWM_SET_CHANNEL_1_DUTY?PWM

?PR?LED_RED_BLUE_FLASH_1MS_ISR?LED               -----    -----      -----    -----      6261H    0002H
  +--> ?PR?LED

?PR?LED_BAT_INSTRUCTION_TIMER_CALLBAC...         -----    -----      -----    -----      -----    -----
  +--> ?PR?LED

?PR?LOW_POWER_ENTER_TIMER_CALLBACK?LO...         -----    -----      -----    -----      -----    -----
  +--> ?PR?IS_LOW_POWER_CONDITION_ESTABLISH?...
  +--> ?PR?LOW_POWER

?PR?SEND_LOW_BAT_TIMER_CALLBACK?BATTE...         -----    -----      -----    -----      -----    -----
  +--> ?PR?BATTERY_MONITOR

*** NEW ROOT ***************************************************

?PR?TIMR1_IRQHANDLER?TIMER1                      -----    -----      -----    -----      -----    -----
  +--> ?PR?DETECT_1KHZ_SIGNAL_100US?CHARGE_DET
  +--> ?PR?DETECT_DISCHARGE_1KHZ_SIGNAL_100U...

?PR?DETECT_1KHZ_SIGNAL_100US?CHARGE_DET          -----    -----      -----    -----      6263H    0001H
  +--> ?PR?CHARGE_DET

?PR?DETECT_DISCHARGE_1KHZ_SIGNAL_100U...         -----    -----      -----    -----      6263H    0001H
  +--> ?PR?CHARGE_DET

*** NEW ROOT ***************************************************

?PR?UART0_IRQHANDLER?UART0                       -----    -----      -----    -----      6264H    0001H
  +--> ?PR?_UART0_RXBUFFER_PUT_BYTE?UART0

?PR?_UART0_RXBUFFER_PUT_BYTE?UART0               -----    -----      -----    -----      -----    -----
  +--> ?PR?UART0



SYMBOL TABLE OF MODULE:  .\Release\Objects\Demo (?C_STARTUP)

BL51 BANKED LINKER/LOCATER V6.22.4.0                                                  07/07/2026  17:35:16  PAGE 10


  VALUE           TYPE          NAME
  ----------------------------------

  -------         MODULE        ?C_STARTUP
  C:1F43H         SEGMENT       ?C_C51STARTUP
  I:0023H         SEGMENT       ?STACK
  C:0000H         PUBLIC        ?C_STARTUP
  D:00E0H         SYMBOL        ACC
  D:00F0H         SYMBOL        B
  D:0083H         SYMBOL        DPH
  D:0082H         SYMBOL        DPL
  N:0000H         SYMBOL        IBPSTACK
  N:0100H         SYMBOL        IBPSTACKTOP
  N:0080H         SYMBOL        IDATALEN
  C:1F46H         SYMBOL        IDATALOOP
  N:0000H         SYMBOL        PBPSTACK
  N:0100H         SYMBOL        PBPSTACKTOP
  N:0000H         SYMBOL        PDATALEN
  N:0000H         SYMBOL        PDATASTART
  N:0000H         SYMBOL        PPAGE
  N:0000H         SYMBOL        PPAGEENABLE
  D:00A0H         SYMBOL        PPAGE_SFR
  D:0081H         SYMBOL        SP
  C:1F43H         SYMBOL        STARTUP1
  N:0000H         SYMBOL        XBPSTACK
  N:0000H         SYMBOL        XBPSTACKTOP
  N:0000H         SYMBOL        XDATALEN
  N:0000H         SYMBOL        XDATASTART
  C:0000H         LINE#         126
  C:1F43H         LINE#         133
  C:1F45H         LINE#         134
  C:1F46H         LINE#         135
  C:1F47H         LINE#         136
  C:1F49H         LINE#         185
  C:1F4CH         LINE#         196
  -------         ENDMOD        ?C_STARTUP

  -------         MODULE        SYSTEM
  C:0000H         SYMBOL        _ICE_DUMMY_
  D:00A7H         PUBLIC        FLASH_TIMEREG0
  D:00ACH         PUBLIC        FLASH_TIMEREG1
  C:2D71H         PUBLIC        _delay
  C:2C11H         PUBLIC        _delay_ms
  C:1B21H         PUBLIC        system_init
  -------         PROC          _DELAY
  D:0006H         SYMBOL        cnt
  C:2D71H         LINE#         37
  C:2D71H         LINE#         38
  C:2D71H         LINE#         39
  C:2D7BH         LINE#         40
  C:2D7BH         LINE#         41
  C:2D7BH         LINE#         42
  -------         ENDPROC       _DELAY
  -------         PROC          _DELAY_MS
  D:0002H         SYMBOL        ms
  C:2C11H         LINE#         49
  C:2C15H         LINE#         50
BL51 BANKED LINKER/LOCATER V6.22.4.0                                                  07/07/2026  17:35:16  PAGE 11


  C:2C15H         LINE#         51
  C:2C1FH         LINE#         52
  C:2C1FH         LINE#         53
  C:2C26H         LINE#         54
  C:2C28H         LINE#         55
  -------         ENDPROC       _DELAY_MS
  -------         PROC          SYSTEM_INIT
  -------         DO            
  D:0007H         SYMBOL        i
  -------         ENDDO         
  C:1B21H         LINE#         62
  C:1B21H         LINE#         63
  C:1B21H         LINE#         66
  C:1B28H         LINE#         67
  C:1B35H         LINE#         68
  C:1B38H         LINE#         69
  C:1B3BH         LINE#         70
  C:1B41H         LINE#         71
  C:1B47H         LINE#         72
  C:1B4DH         LINE#         76
  C:1B4FH         LINE#         77
  C:1B4FH         LINE#         78
  C:1B5CH         LINE#         79
  C:1B61H         LINE#         81
  C:1BEFH         LINE#         82
  -------         ENDPROC       SYSTEM_INIT
  -------         ENDMOD        SYSTEM

  -------         MODULE        ADC
  C:0000H         SYMBOL        _ICE_DUMMY_
  D:00A8H         PUBLIC        IE0
  D:00A9H         PUBLIC        IE1
  D:00AAH         PUBLIC        IE2
  D:00ABH         PUBLIC        IE3
  B:00A8H.7       PUBLIC        IE_EA
  D:00B8H         PUBLIC        IP0
  D:00B1H         PUBLIC        IP1
  D:00B2H         PUBLIC        IP2
  D:00B3H         PUBLIC        IP3
  D:00B4H         PUBLIC        IP4
  D:00B5H         PUBLIC        IP5
  D:00B6H         PUBLIC        IP6
  D:00B7H         PUBLIC        IP7
  D:0093H         PUBLIC        ADC_DATAH0
  D:0094H         PUBLIC        ADC_DATAL0
  D:0099H         PUBLIC        ADC_CHS0
  X:6326H         PUBLIC        cur_adc_status
  C:2CFAH         PUBLIC        adc_pin_init
  C:2AE8H         PUBLIC        adc_init
  C:232CH         PUBLIC        adc_scan
  C:2CC4H         PUBLIC        adc_init_when_low_pwr_out
  C:272DH         PUBLIC        _adc_update_val
  C:2920H         PUBLIC        _adc_get_val
  C:2A7CH         PUBLIC        _adc_get_update_flag
  C:0024H         PUBLIC        _adc_clear_update_flag
  C:2584H         PUBLIC        _adc_channel_sel
  C:2C41H         PUBLIC        adc_get_val_once
BL51 BANKED LINKER/LOCATER V6.22.4.0                                                  07/07/2026  17:35:16  PAGE 12


  X:6327H         SYMBOL        adc_adkey_val
  B:0022H.2       SYMBOL        flag_is_adkey_val_update
  X:6329H         SYMBOL        adc_bat_det_val
  B:0022H.3       SYMBOL        flag_is_adc_bat_det_val_update
  X:632BH         SYMBOL        adc_solar_det_val
  B:0022H.4       SYMBOL        flag_is_adc_solar_det_val_update
  X:632DH         SYMBOL        adc_type_c_det_val
  B:0022H.5       SYMBOL        flag_is_adc_type_c_det_val_update
  C:205AH         PUBLIC        ADC_IRQHandler
  C:294EH         SYMBOL        Com0067
  C:294EH         SYMBOL        L?0104
  C:294EH         SYMBOL        L?0105
  C:2958H         SYMBOL        L?0106
  C:2958H         SYMBOL        L?0107
  C:2961H         SYMBOL        L?0108
  C:2961H         SYMBOL        L?0109
  C:2968H         SYMBOL        L?0110
  C:2972H         SYMBOL        L?0111
  -------         PROC          COM0067
  -------         ENDPROC       COM0067
  -------         PROC          ADC_PIN_INIT
  C:2CFAH         LINE#         22
  C:2CFAH         LINE#         23
  C:2CFAH         LINE#         25
  C:2D00H         LINE#         28
  C:2D06H         LINE#         31
  C:2D0AH         LINE#         32
  -------         ENDPROC       ADC_PIN_INIT
  -------         PROC          ADC_INIT
  C:2AE8H         LINE#         34
  C:2AE8H         LINE#         35
  C:2AE8H         LINE#         36
  C:2AEDH         LINE#         38
  C:2AF3H         LINE#         42
  C:2AF6H         LINE#         43
  C:2AF8H         LINE#         45
  C:2AFEH         LINE#         47
  C:2B03H         LINE#         50
  -------         ENDPROC       ADC_INIT
  -------         PROC          _ADC_UPDATE_VAL
  D:0007H         SYMBOL        adc_channel
  D:0004H         SYMBOL        adc_val
  C:272DH         LINE#         59
  C:272DH         LINE#         60
  C:272DH         LINE#         61
  C:273CH         LINE#         62
  C:273CH         LINE#         63
  C:273CH         LINE#         64
  C:2744H         LINE#         65
  C:2746H         LINE#         66
  C:2747H         LINE#         67
  C:2747H         LINE#         68
  C:274FH         LINE#         69
  C:2751H         LINE#         70
  C:2752H         LINE#         71
  C:2752H         LINE#         72
  C:275AH         LINE#         73
BL51 BANKED LINKER/LOCATER V6.22.4.0                                                  07/07/2026  17:35:16  PAGE 13


  C:275CH         LINE#         74
  C:275DH         LINE#         75
  C:275DH         LINE#         76
  C:2767H         LINE#         77
  C:2769H         LINE#         78
  C:2769H         LINE#         79
  C:2769H         LINE#         80
  -------         ENDPROC       _ADC_UPDATE_VAL
  -------         PROC          _ADC_GET_VAL
  D:0007H         SYMBOL        adc_channel
  -------         DO            
  D:0004H         SYMBOL        ret
  -------         ENDDO         
  C:2920H         LINE#         82
  C:2920H         LINE#         83
  C:2920H         LINE#         84
  C:2923H         LINE#         85
  C:2932H         LINE#         86
  C:2932H         LINE#         87
  C:2932H         LINE#         88
  C:2935H         LINE#         89
  C:2937H         LINE#         90
  C:2937H         LINE#         91
  C:293AH         LINE#         92
  C:293CH         LINE#         93
  C:293CH         LINE#         94
  C:293FH         LINE#         95
  C:2941H         LINE#         96
  C:2941H         LINE#         97
  C:2949H         LINE#         98
  C:2949H         LINE#         100
  C:2949H         LINE#         101
  C:2949H         LINE#         102
  C:2949H         LINE#         104
  C:294DH         LINE#         105
  -------         ENDPROC       _ADC_GET_VAL
  -------         PROC          _ADC_GET_UPDATE_FLAG
  D:0007H         SYMBOL        adc_channel
  -------         DO            
  D:0006H         SYMBOL        ret
  -------         ENDDO         
  C:2A7CH         LINE#         108
  C:2A7CH         LINE#         109
  C:2A7CH         LINE#         110
  C:2A7EH         LINE#         111
  C:2A8DH         LINE#         112
  C:2A8DH         LINE#         113
  C:2A8DH         LINE#         114
  C:2A8FH         LINE#         115
  C:2A91H         LINE#         116
  C:2A91H         LINE#         117
  C:2A93H         LINE#         118
  C:2A95H         LINE#         119
  C:2A95H         LINE#         120
  C:2A97H         LINE#         121
  C:2A99H         LINE#         122
  C:2A99H         LINE#         123
BL51 BANKED LINKER/LOCATER V6.22.4.0                                                  07/07/2026  17:35:16  PAGE 14


  C:2A9EH         LINE#         124
  C:2A9EH         LINE#         126
  C:2A9EH         LINE#         127
  C:2A9EH         LINE#         128
  C:2A9EH         LINE#         130
  C:2AA0H         LINE#         131
  -------         ENDPROC       _ADC_GET_UPDATE_FLAG
  -------         PROC          _ADC_CLEAR_UPDATE_FLAG
  D:0007H         SYMBOL        adc_channel
  C:0024H         LINE#         134
  C:0024H         LINE#         135
  C:0024H         LINE#         136
  C:0033H         LINE#         137
  C:0033H         LINE#         138
  C:0033H         LINE#         139
  C:0035H         LINE#         140
  C:0036H         LINE#         141
  C:0036H         LINE#         142
  C:0038H         LINE#         143
  C:0039H         LINE#         144
  C:0039H         LINE#         145
  C:003BH         LINE#         146
  C:003CH         LINE#         147
  C:003CH         LINE#         148
  C:003EH         LINE#         149
  C:003EH         LINE#         151
  C:003EH         LINE#         152
  C:003EH         LINE#         153
  C:003EH         LINE#         154
  -------         ENDPROC       _ADC_CLEAR_UPDATE_FLAG
  -------         PROC          _ADC_CHANNEL_SEL
  D:0007H         SYMBOL        adc_channel
  C:2584H         LINE#         156
  C:2584H         LINE#         157
  C:2584H         LINE#         158
  C:258BH         LINE#         162
  C:259AH         LINE#         163
  C:259AH         LINE#         164
  C:259AH         LINE#         166
  C:25A1H         LINE#         168
  C:25A4H         LINE#         169
  C:25A6H         LINE#         170
  C:25A6H         LINE#         171
  C:25ADH         LINE#         174
  C:25B0H         LINE#         176
  C:25B2H         LINE#         177
  C:25B2H         LINE#         181
  C:25B9H         LINE#         184
  C:25BCH         LINE#         185
  C:25BEH         LINE#         187
  C:25BEH         LINE#         188
  C:25C5H         LINE#         191
  C:25C8H         LINE#         192
  C:25C8H         LINE#         194
  C:25C8H         LINE#         195
  C:25C8H         LINE#         196
  C:25C8H         LINE#         198
BL51 BANKED LINKER/LOCATER V6.22.4.0                                                  07/07/2026  17:35:16  PAGE 15


  C:25CEH         LINE#         200
  -------         ENDPROC       _ADC_CHANNEL_SEL
  -------         PROC          ADC_INIT_WHEN_LOW_PWR_OUT
  C:2CC4H         LINE#         203
  C:2CC4H         LINE#         204
  C:2CC4H         LINE#         205
  C:2CCAH         LINE#         208
  C:2CD0H         LINE#         209
  C:2CD5H         LINE#         211
  -------         ENDPROC       ADC_INIT_WHEN_LOW_PWR_OUT
  -------         PROC          ADC_GET_VAL_ONCE
  C:2C41H         LINE#         214
  C:2C41H         LINE#         215
  C:2C41H         LINE#         216
  C:2C47H         LINE#         217
  C:2C4DH         LINE#         219
  C:2C4FH         LINE#         220
  C:2C57H         LINE#         221
  -------         ENDPROC       ADC_GET_VAL_ONCE
  -------         PROC          ADC_SCAN
  C:232CH         LINE#         224
  C:232CH         LINE#         225
  C:232CH         LINE#         227
  C:2352H         LINE#         228
  C:2352H         LINE#         229
  C:2352H         LINE#         231
  C:2352H         LINE#         232
  C:2354H         LINE#         233
  C:235AH         LINE#         234
  C:235BH         LINE#         235
  C:235BH         LINE#         237
  C:235BH         LINE#         238
  C:2361H         LINE#         239
  C:2362H         LINE#         240
  C:2362H         LINE#         241
  C:2364H         LINE#         242
  C:236AH         LINE#         243
  C:236BH         LINE#         244
  C:236BH         LINE#         249
  C:236BH         LINE#         250
  C:2371H         LINE#         251
  C:2372H         LINE#         252
  C:2372H         LINE#         253
  C:2374H         LINE#         254
  C:237AH         LINE#         255
  C:237BH         LINE#         256
  C:237BH         LINE#         257
  C:237BH         LINE#         258
  C:2381H         LINE#         259
  C:2382H         LINE#         260
  C:2382H         LINE#         261
  C:2384H         LINE#         262
  C:238AH         LINE#         263
  C:238BH         LINE#         264
  C:238BH         LINE#         265
  C:238BH         LINE#         266
  C:2391H         LINE#         267
BL51 BANKED LINKER/LOCATER V6.22.4.0                                                  07/07/2026  17:35:16  PAGE 16


  C:2391H         LINE#         269
  C:2391H         LINE#         270
  C:2391H         LINE#         271
  C:2391H         LINE#         272
  -------         ENDPROC       ADC_SCAN
  -------         PROC          ADC_IRQHANDLER
  -------         DO            
  X:6233H         SYMBOL        adc_val
  -------         ENDDO         
  C:205AH         LINE#         274
  C:2077H         LINE#         279
  C:2077H         LINE#         283
  C:207DH         LINE#         284
  C:207DH         LINE#         285
  C:2080H         LINE#         286
  C:208FH         LINE#         288
  C:20A3H         LINE#         289
  C:20A3H         LINE#         290
  C:20A3H         LINE#         291
  C:20A8H         LINE#         292
  C:20AAH         LINE#         293
  C:20AAH         LINE#         294
  C:20B2H         LINE#         299
  C:20B5H         LINE#         300
  C:20B7H         LINE#         301
  C:20B7H         LINE#         302
  C:20BCH         LINE#         303
  C:20BEH         LINE#         304
  C:20BEH         LINE#         305
  C:20C6H         LINE#         306
  C:20C6H         LINE#         308
  C:20C6H         LINE#         309
  C:20C6H         LINE#         310
  C:20C6H         LINE#         311
  C:20C6H         LINE#         314
  C:20C6H         LINE#         315
  -------         ENDPROC       ADC_IRQHANDLER
  -------         ENDMOD        ADC

  -------         MODULE        PWM
  C:0000H         SYMBOL        _ICE_DUMMY_
  B:00A0H.7       PUBLIC        P27
  B:00B0H.0       PUBLIC        P30
  C:1FCFH         PUBLIC        pwm_init
  C:2D86H         PUBLIC        _pwm_set_channel_0_duty
  C:2D8FH         PUBLIC        _pwm_set_channel_1_duty
  C:2C6FH         SYMBOL        Com0004
  C:2C6FH         SYMBOL        L?0005
  C:2C7AH         SYMBOL        L?0006
  -------         PROC          COM0004
  -------         ENDPROC       COM0004
  -------         PROC          PWM_INIT
  C:1FCFH         LINE#         3
  C:1FCFH         LINE#         4
  C:1FCFH         LINE#         6
  C:1FD5H         LINE#         7
  C:1FD9H         LINE#         9
BL51 BANKED LINKER/LOCATER V6.22.4.0                                                  07/07/2026  17:35:16  PAGE 17


  C:1FDBH         LINE#         10
  C:1FE0H         LINE#         13
  C:1FE6H         LINE#         14
  C:1FEAH         LINE#         16
  C:1FECH         LINE#         17
  C:1FF1H         LINE#         21
  C:1FF7H         LINE#         22
  C:1FFCH         LINE#         23
  C:2001H         LINE#         24
  C:2005H         LINE#         25
  C:2007H         LINE#         26
  C:2007H         LINE#         27
  C:2007H         LINE#         29
  C:200DH         LINE#         30
  C:2013H         LINE#         31
  C:2019H         LINE#         32
  C:201FH         LINE#         33
  C:2025H         LINE#         37
  C:202BH         LINE#         38
  C:2030H         LINE#         39
  C:2035H         LINE#         40
  C:2039H         LINE#         41
  C:203BH         LINE#         42
  C:203BH         LINE#         43
  C:203BH         LINE#         45
  C:2041H         LINE#         46
  C:2047H         LINE#         47
  C:204DH         LINE#         48
  C:2053H         LINE#         49
  C:2059H         LINE#         50
  -------         ENDPROC       PWM_INIT
  -------         PROC          _PWM_SET_CHANNEL_0_DUTY
  D:0004H         SYMBOL        channel_duty
  C:2D86H         LINE#         53
  C:2D86H         LINE#         54
  C:2D86H         LINE#         55
  C:2D88H         LINE#         56
  C:2D88H         LINE#         57
  C:2D8EH         LINE#         58
  -------         ENDPROC       _PWM_SET_CHANNEL_0_DUTY
  -------         PROC          _PWM_SET_CHANNEL_1_DUTY
  D:0004H         SYMBOL        channel_duty
  C:2D8FH         LINE#         61
  C:2D8FH         LINE#         62
  C:2D8FH         LINE#         63
  C:2D91H         LINE#         64
  C:2D91H         LINE#         65
  C:2D97H         LINE#         66
  -------         ENDPROC       _PWM_SET_CHANNEL_1_DUTY
  -------         ENDMOD        PWM

  -------         MODULE        TIMER0
  C:0000H         SYMBOL        _ICE_DUMMY_
  D:00A8H         PUBLIC        IE0
  D:00A9H         PUBLIC        IE1
  D:00AAH         PUBLIC        IE2
  D:00ABH         PUBLIC        IE3
BL51 BANKED LINKER/LOCATER V6.22.4.0                                                  07/07/2026  17:35:16  PAGE 18


  B:00A8H.7       PUBLIC        IE_EA
  D:00B8H         PUBLIC        IP0
  D:00B1H         PUBLIC        IP1
  D:00B2H         PUBLIC        IP2
  D:00B3H         PUBLIC        IP3
  D:00B4H         PUBLIC        IP4
  D:00B5H         PUBLIC        IP5
  D:00B6H         PUBLIC        IP6
  D:00B7H         PUBLIC        IP7
  D:00D1H         PUBLIC        TMR_ALLCON
  C:2BA8H         PUBLIC        timer0_init
  C:22BDH         PUBLIC        TIMR0_IRQHandler
  -------         PROC          TIMER0_INIT
  C:2BA8H         LINE#         10
  C:2BA8H         LINE#         11
  C:2BA8H         LINE#         12
  C:2BABH         LINE#         13
  C:2BADH         LINE#         15
  C:2BB0H         LINE#         16
  C:2BB5H         LINE#         17
  C:2BB9H         LINE#         18
  C:2BBEH         LINE#         19
  C:2BC2H         LINE#         20
  -------         ENDPROC       TIMER0_INIT
  -------         PROC          TIMR0_IRQHANDLER
  C:22BDH         LINE#         24
  C:22DAH         LINE#         27
  C:22DAH         LINE#         32
  C:22E0H         LINE#         33
  C:22E0H         LINE#         34
  C:22E4H         LINE#         40
  C:22EAH         LINE#         41
  C:22EDH         LINE#         43
  C:22F0H         LINE#         44
  C:22F3H         LINE#         46
  C:22F6H         LINE#         47
  C:22F9H         LINE#         48
  C:22FCH         LINE#         50
  C:22FFH         LINE#         51
  C:2302H         LINE#         52
  C:2305H         LINE#         54
  C:2308H         LINE#         55
  C:230BH         LINE#         57
  C:230EH         LINE#         60
  C:2311H         LINE#         63
  C:2311H         LINE#         66
  C:2311H         LINE#         67
  -------         ENDPROC       TIMR0_IRQHANDLER
  -------         ENDMOD        TIMER0

  -------         MODULE        TIMER1
  C:0000H         SYMBOL        _ICE_DUMMY_
  D:00A8H         PUBLIC        IE0
  D:00A9H         PUBLIC        IE1
  D:00AAH         PUBLIC        IE2
  D:00ABH         PUBLIC        IE3
  B:00A8H.7       PUBLIC        IE_EA
BL51 BANKED LINKER/LOCATER V6.22.4.0                                                  07/07/2026  17:35:16  PAGE 19


  D:00B8H         PUBLIC        IP0
  D:00B1H         PUBLIC        IP1
  D:00B2H         PUBLIC        IP2
  D:00B3H         PUBLIC        IP3
  D:00B4H         PUBLIC        IP4
  D:00B5H         PUBLIC        IP5
  D:00B6H         PUBLIC        IP6
  D:00B7H         PUBLIC        IP7
  D:00D1H         PUBLIC        TMR_ALLCON
  C:2BC3H         PUBLIC        timer1_init
  C:2619H         PUBLIC        TIMR1_IRQHandler
  -------         PROC          TIMER1_INIT
  C:2BC3H         LINE#         9
  C:2BC3H         LINE#         10
  C:2BC3H         LINE#         12
  C:2BC6H         LINE#         13
  C:2BC8H         LINE#         15
  C:2BCBH         LINE#         16
  C:2BD0H         LINE#         17
  C:2BD4H         LINE#         18
  C:2BD9H         LINE#         19
  C:2BDDH         LINE#         23
  -------         ENDPROC       TIMER1_INIT
  -------         PROC          TIMR1_IRQHANDLER
  C:2619H         LINE#         27
  C:2636H         LINE#         30
  C:2636H         LINE#         34
  C:263CH         LINE#         35
  C:263CH         LINE#         36
  C:2640H         LINE#         39
  C:2643H         LINE#         40
  C:2646H         LINE#         41
  C:2646H         LINE#         44
  C:2646H         LINE#         45
  -------         ENDPROC       TIMR1_IRQHANDLER
  -------         ENDMOD        TIMER1

  -------         MODULE        UART0
  C:0000H         SYMBOL        _ICE_DUMMY_
  D:00A8H         PUBLIC        IE0
  D:00A9H         PUBLIC        IE1
  D:00AAH         PUBLIC        IE2
  D:00ABH         PUBLIC        IE3
  B:00A8H.7       PUBLIC        IE_EA
  D:00B8H         PUBLIC        IP0
  D:00B1H         PUBLIC        IP1
  D:00B2H         PUBLIC        IP2
  D:00B3H         PUBLIC        IP3
  D:00B4H         PUBLIC        IP4
  D:00B5H         PUBLIC        IP5
  D:00B6H         PUBLIC        IP6
  D:00B7H         PUBLIC        IP7
  D:00D2H         PUBLIC        UART0_CON0
  D:00D4H         PUBLIC        UART0_STA
  D:00D5H         PUBLIC        UART0_BAUD0
  D:00D6H         PUBLIC        UART0_BAUD1
  D:00D7H         PUBLIC        UART0_DATA
BL51 BANKED LINKER/LOCATER V6.22.4.0                                                  07/07/2026  17:35:16  PAGE 20


  C:27A6H         PUBLIC        uart0_init
  C:2DA9H         PUBLIC        _uart0_sendbyte
  C:2AC5H         PUBLIC        _uart0_sendbuf
  C:2D98H         PUBLIC        uart0_rxbuffer_get_count
  C:276AH         PUBLIC        uart0_rxbuffer_get_byte
  C:2DA1H         PUBLIC        _putchar
  X:6000H         PUBLIC        uart0_rx_buffer
  C:26ECH         SYMBOL        _uart0_rxbuffer_put_byte
  C:2886H         PUBLIC        UART0_IRQHandler
  C:2DC9H         SYMBOL        Com004A
  C:2DC9H         SYMBOL        L?0075
  C:2DC9H         SYMBOL        L?0076
  -------         PROC          COM004A
  -------         ENDPROC       COM004A
  -------         PROC          _PUTCHAR
  D:0007H         SYMBOL        c
  C:2DA1H         LINE#         8
  C:2DA1H         LINE#         9
  C:2DA1H         LINE#         10
  C:2DA6H         LINE#         12
  C:2DA8H         LINE#         13
  C:2DA8H         LINE#         14
  -------         ENDPROC       _PUTCHAR
  -------         PROC          UART0_INIT
  C:27A6H         LINE#         17
  C:27A6H         LINE#         18
  C:27A6H         LINE#         19
  C:27ACH         LINE#         20
  C:27B0H         LINE#         21
  C:27B7H         LINE#         23
  C:27BDH         LINE#         24
  C:27C3H         LINE#         25
  C:27C9H         LINE#         27
  C:27CCH         LINE#         28
  C:27CFH         LINE#         29
  C:27D2H         LINE#         33
  C:27DAH         LINE#         34
  C:27DDH         LINE#         35
  C:27DFH         LINE#         36
  -------         ENDPROC       UART0_INIT
  -------         PROC          _UART0_SENDBYTE
  D:0007H         SYMBOL        byte
  C:2DA9H         LINE#         39
  C:2DA9H         LINE#         40
  C:2DA9H         LINE#         41
  C:2DAEH         LINE#         44
  C:2DB0H         LINE#         48
  -------         ENDPROC       _UART0_SENDBYTE
  -------         PROC          _UART0_SENDBUF
  X:6210H         SYMBOL        buf
  D:0005H         SYMBOL        len
  -------         DO            
  D:0006H         SYMBOL        i
  -------         ENDDO         
  C:2AC5H         LINE#         50
  C:2ACBH         LINE#         51
  C:2ACBH         LINE#         52
BL51 BANKED LINKER/LOCATER V6.22.4.0                                                  07/07/2026  17:35:16  PAGE 21


  C:2ACDH         LINE#         53
  C:2AD2H         LINE#         54
  C:2AD2H         LINE#         55
  C:2AE4H         LINE#         56
  C:2AE7H         LINE#         57
  -------         ENDPROC       _UART0_SENDBUF
  -------         PROC          UART0_RXBUFFER_GET_COUNT
  C:2D98H         LINE#         60
  C:2D98H         LINE#         61
  C:2D98H         LINE#         62
  C:2DA0H         LINE#         63
  -------         ENDPROC       UART0_RXBUFFER_GET_COUNT
  -------         PROC          UART0_RXBUFFER_GET_BYTE
  -------         DO            
  D:0007H         SYMBOL        rxbyte
  -------         ENDDO         
  C:276AH         LINE#         66
  C:276AH         LINE#         67
  C:276AH         LINE#         70
  C:2774H         LINE#         71
  C:2774H         LINE#         73
  C:2776H         LINE#         74
  C:2776H         LINE#         80
  C:277CH         LINE#         81
  C:2785H         LINE#         82
  C:2785H         LINE#         83
  C:2789H         LINE#         84
  C:2789H         LINE#         85
  C:279BH         LINE#         87
  C:27A5H         LINE#         89
  C:27A5H         LINE#         90
  -------         ENDPROC       UART0_RXBUFFER_GET_BYTE
  -------         PROC          _UART0_RXBUFFER_PUT_BYTE
  D:0007H         SYMBOL        byte
  C:26ECH         LINE#         92
  C:26ECH         LINE#         93
  C:26ECH         LINE#         100
  C:26F2H         LINE#         101
  C:26FBH         LINE#         102
  C:26FBH         LINE#         103
  C:26FFH         LINE#         104
  C:26FFH         LINE#         105
  C:2711H         LINE#         107
  C:2717H         LINE#         108
  C:2726H         LINE#         109
  C:2726H         LINE#         110
  C:272CH         LINE#         111
  C:272CH         LINE#         112
  -------         ENDPROC       _UART0_RXBUFFER_PUT_BYTE
  -------         PROC          UART0_IRQHANDLER
  -------         DO            
  X:6264H         SYMBOL        recv_byte
  -------         ENDDO         
  C:2886H         LINE#         115
  C:2899H         LINE#         118
  C:2899H         LINE#         121
  C:289EH         LINE#         122
BL51 BANKED LINKER/LOCATER V6.22.4.0                                                  07/07/2026  17:35:16  PAGE 22


  C:289EH         LINE#         123
  C:28A4H         LINE#         124
  C:28A9H         LINE#         127
  C:28A9H         LINE#         129
  C:28A9H         LINE#         130
  -------         ENDPROC       UART0_IRQHANDLER
  -------         ENDMOD        UART0

  -------         MODULE        MAIN
  C:0000H         SYMBOL        _ICE_DUMMY_
  D:00D9H         PUBLIC        WDT_KEY
  C:297CH         PUBLIC        user_init
  C:249FH         PUBLIC        main
  -------         PROC          USER_INIT
  C:297CH         LINE#         103
  C:297CH         LINE#         104
  C:297CH         LINE#         105
  C:297FH         LINE#         106
  C:2982H         LINE#         107
  C:2985H         LINE#         108
  C:2988H         LINE#         109
  C:298BH         LINE#         110
  C:298EH         LINE#         112
  C:2991H         LINE#         113
  C:2994H         LINE#         114
  C:2997H         LINE#         117
  C:299AH         LINE#         118
  C:299DH         LINE#         121
  C:29A0H         LINE#         123
  -------         ENDPROC       USER_INIT
  -------         PROC          MAIN
  C:249FH         LINE#         126
  C:249FH         LINE#         127
  C:249FH         LINE#         129
  C:24A2H         LINE#         130
  C:24A5H         LINE#         133
  C:24A8H         LINE#         134
  C:24AFH         LINE#         135
  C:24B2H         LINE#         138
  C:24B7H         LINE#         139
  C:24B9H         LINE#         140
  C:24BCH         LINE#         141
  C:24BEH         LINE#         142
  C:24C1H         LINE#         143
  C:24C3H         LINE#         144
  C:24C6H         LINE#         145
  C:24C8H         LINE#         147
  C:24CBH         LINE#         148
  C:24D2H         LINE#         150
  C:24D2H         LINE#         151
  C:24D2H         LINE#         152
  C:24DBH         LINE#         153
  C:24DEH         LINE#         155
  C:24E1H         LINE#         157
  C:24E4H         LINE#         159
  C:24E7H         LINE#         166
  C:24EAH         LINE#         171
BL51 BANKED LINKER/LOCATER V6.22.4.0                                                  07/07/2026  17:35:16  PAGE 23


  -------         ENDPROC       MAIN
  -------         ENDMOD        MAIN

  -------         MODULE        UART_DATA_HANDLE
  C:0000H         SYMBOL        _ICE_DUMMY_
  C:2CD6H         PUBLIC        uart_receiver_reset
  C:000FH         PUBLIC        uart_receiver_timeout_add
  C:2850H         PUBLIC        uart_receiver_process_checksum
  C:1E0BH         PUBLIC        _uart_receiver_process_byte
  C:23F8H         PUBLIC        uart_receiver_timeout_handler
  C:1CA9H         PUBLIC        uart_data_handle
  C:26A7H         PUBLIC        _uart_data_send_cmd
  X:62FAH         SYMBOL        uart_receiver
  C:1A3FH         SYMBOL        _?ix1000
  C:2819H         SYMBOL        Com003C
  C:2819H         SYMBOL        L?0061
  C:2819H         SYMBOL        L?0062
  C:281EH         SYMBOL        L?0063
  C:2835H         SYMBOL        L?0064
  C:283AH         SYMBOL        L?0065
  C:283EH         SYMBOL        L?0066
  C:2845H         SYMBOL        L?0067
  -------         PROC          COM003C
  -------         ENDPROC       COM003C
  -------         PROC          UART_RECEIVER_RESET
  C:2CD6H         LINE#         13
  C:2CD6H         LINE#         14
  C:2CD6H         LINE#         16
  C:2CDBH         LINE#         17
  C:2CDFH         LINE#         18
  C:2CE3H         LINE#         19
  C:2CE7H         LINE#         20
  -------         ENDPROC       UART_RECEIVER_RESET
  -------         PROC          UART_RECEIVER_TIMEOUT_ADD
  C:000FH         LINE#         26
  C:000FH         LINE#         27
  C:000FH         LINE#         28
  C:0015H         LINE#         29
  C:0015H         LINE#         30
  C:001DH         LINE#         31
  C:001DH         LINE#         32
  -------         ENDPROC       UART_RECEIVER_TIMEOUT_ADD
  -------         PROC          UART_RECEIVER_PROCESS_CHECKSUM
  -------         DO            
  D:0006H         SYMBOL        i
  D:0007H         SYMBOL        check_sum
  -------         ENDDO         
  C:2850H         LINE#         39
  C:2850H         LINE#         40
  C:2850H         LINE#         42
  C:2852H         LINE#         43
  C:2853H         LINE#         44
  C:2853H         LINE#         45
  C:2859H         LINE#         46
  C:285EH         LINE#         48
  C:2865H         LINE#         49
  C:2865H         LINE#         50
BL51 BANKED LINKER/LOCATER V6.22.4.0                                                  07/07/2026  17:35:16  PAGE 24


  C:2868H         LINE#         51
  C:2868H         LINE#         53
  C:2868H         LINE#         57
  C:2883H         LINE#         60
  C:2885H         LINE#         61
  C:2885H         LINE#         62
  -------         ENDPROC       UART_RECEIVER_PROCESS_CHECKSUM
  -------         PROC          _UART_RECEIVER_PROCESS_BYTE
  X:6208H         SYMBOL        byte
  C:1E0BH         LINE#         71
  C:1E10H         LINE#         72
  C:1E10H         LINE#         74
  C:1E33H         LINE#         75
  C:1E33H         LINE#         76
  C:1E33H         LINE#         77
  C:1E3BH         LINE#         78
  C:1E3BH         LINE#         79
  C:1E3BH         LINE#         80
  C:1E40H         LINE#         81
  C:1E43H         LINE#         82
  C:1E43H         LINE#         84
  C:1E43H         LINE#         85
  C:1E46H         LINE#         86
  C:1E46H         LINE#         87
  C:1E46H         LINE#         89
  C:1E46H         LINE#         90
  C:1E4EH         LINE#         91
  C:1E4EH         LINE#         92
  C:1E4EH         LINE#         93
  C:1E53H         LINE#         94
  C:1E56H         LINE#         95
  C:1E56H         LINE#         97
  C:1E56H         LINE#         99
  C:1E59H         LINE#         100
  C:1E59H         LINE#         101
  C:1E59H         LINE#         103
  C:1E59H         LINE#         104
  C:1E60H         LINE#         105
  C:1E60H         LINE#         106
  C:1E60H         LINE#         107
  C:1E65H         LINE#         108
  C:1E68H         LINE#         109
  C:1E68H         LINE#         111
  C:1E68H         LINE#         112
  C:1E6BH         LINE#         113
  C:1E6BH         LINE#         114
  C:1E6BH         LINE#         116
  C:1E6BH         LINE#         118
  C:1E6BH         LINE#         119
  C:1E70H         LINE#         120
  C:1E73H         LINE#         121
  C:1E73H         LINE#         123
  C:1E73H         LINE#         125
  C:1E73H         LINE#         126
  C:1E78H         LINE#         127
  C:1E7AH         LINE#         128
  C:1E7AH         LINE#         130
BL51 BANKED LINKER/LOCATER V6.22.4.0                                                  07/07/2026  17:35:16  PAGE 25


  C:1E7AH         LINE#         131
  C:1E81H         LINE#         132
  C:1E81H         LINE#         133
  C:1E81H         LINE#         134
  C:1E86H         LINE#         135
  C:1E88H         LINE#         136
  C:1E88H         LINE#         138
  C:1E88H         LINE#         139
  C:1E8BH         LINE#         140
  C:1E8BH         LINE#         141
  C:1E8BH         LINE#         143
  C:1E8BH         LINE#         145
  C:1E8BH         LINE#         146
  C:1E91H         LINE#         147
  C:1E97H         LINE#         148
  C:1E97H         LINE#         150
  C:1E9AH         LINE#         151
  C:1E9AH         LINE#         153
  C:1E9AH         LINE#         154
  C:1E9DH         LINE#         155
  C:1E9DH         LINE#         156
  C:1E9DH         LINE#         158
  C:1E9DH         LINE#         159
  C:1EA5H         LINE#         160
  C:1EA5H         LINE#         161
  C:1EA5H         LINE#         162
  C:1EABH         LINE#         163
  C:1EAEH         LINE#         164
  C:1EAEH         LINE#         166
  C:1EAEH         LINE#         167
  C:1EB1H         LINE#         168
  C:1EB1H         LINE#         169
  C:1EB1H         LINE#         171
  C:1EB1H         LINE#         172
  C:1EB1H         LINE#         173
  C:1EB1H         LINE#         175
  C:1EB3H         LINE#         176
  -------         ENDPROC       _UART_RECEIVER_PROCESS_BYTE
  -------         PROC          UART_RECEIVER_TIMEOUT_HANDLER
  -------         DO            
  X:6208H         SYMBOL        i
  -------         ENDDO         
  C:23F8H         LINE#         179
  C:23F8H         LINE#         180
  C:23F8H         LINE#         185
  C:2407H         LINE#         186
  C:2407H         LINE#         188
  C:2411H         LINE#         191
  C:241AH         LINE#         192
  C:242DH         LINE#         193
  C:242DH         LINE#         194
  C:243CH         LINE#         195
  C:2444H         LINE#         196
  C:244DH         LINE#         200
  C:2450H         LINE#         201
  C:2450H         LINE#         202
  -------         ENDPROC       UART_RECEIVER_TIMEOUT_HANDLER
BL51 BANKED LINKER/LOCATER V6.22.4.0                                                  07/07/2026  17:35:16  PAGE 26


  -------         PROC          UART_DATA_HANDLE
  -------         DO            
  X:6206H         SYMBOL        i
  X:6207H         SYMBOL        recv_byte
  X:62F9H         SYMBOL        initialized
  -------         ENDDO         
  C:1CA9H         LINE#         203
  C:1CA9H         LINE#         204
  C:1CA9H         LINE#         212
  C:1CAFH         LINE#         213
  C:1CAFH         LINE#         214
  C:1CB2H         LINE#         215
  C:1CB8H         LINE#         216
  C:1CB8H         LINE#         221
  C:1CBEH         LINE#         222
  C:1CBEH         LINE#         223
  C:1CC1H         LINE#         224
  C:1CC1H         LINE#         233
  C:1CC1H         LINE#         234
  C:1CC1H         LINE#         235
  C:1CD5H         LINE#         238
  C:1CD5H         LINE#         252
  C:1CD5H         LINE#         253
  C:1CD5H         LINE#         255
  C:1CDDH         LINE#         258
  C:1CE3H         LINE#         259
  C:1CE8H         LINE#         262
  C:1CF3H         LINE#         263
  C:1CF3H         LINE#         267
  C:1CF9H         LINE#         268
  C:1CF9H         LINE#         269
  C:1D02H         LINE#         270
  C:1D0CH         LINE#         271
  C:1D0CH         LINE#         276
  C:1D0FH         LINE#         277
  C:1D0FH         LINE#         278
  C:1D11H         LINE#         308
  C:1D1EH         LINE#         310
  C:1D1EH         LINE#         312
  C:1D1EH         LINE#         332
  C:1D2EH         LINE#         333
  C:1D2EH         LINE#         334
  C:1D2EH         LINE#         336
  C:1D33H         LINE#         337
  C:1D35H         LINE#         338
  C:1D35H         LINE#         340
  C:1D3BH         LINE#         341
  C:1D3DH         LINE#         342
  C:1D3DH         LINE#         344
  C:1D46H         LINE#         350
  C:1D49H         LINE#         351
  C:1D4BH         LINE#         353
  C:1D4BH         LINE#         355
  C:1D5AH         LINE#         357
  C:1D5AH         LINE#         358
  C:1D5AH         LINE#         361
  C:1D5DH         LINE#         362
BL51 BANKED LINKER/LOCATER V6.22.4.0                                                  07/07/2026  17:35:16  PAGE 27


  -------         ENDPROC       UART_DATA_HANDLE
  -------         PROC          _UART_DATA_SEND_CMD
  X:6207H         SYMBOL        cmd
  -------         DO            
  X:6208H         SYMBOL        buf
  -------         ENDDO         
  C:26A7H         LINE#         366
  C:26ACH         LINE#         367
  C:26ACH         LINE#         368
  C:26BFH         LINE#         379
  C:26C8H         LINE#         380
  C:26E1H         LINE#         382
  -------         ENDPROC       _UART_DATA_SEND_CMD
  -------         ENDMOD        UART_DATA_HANDLE

  -------         MODULE        KEY_DRIVER
  C:0000H         SYMBOL        _ICE_DUMMY_
  C:10B6H         PUBLIC        _key_driver_scan
  X:6335H         SYMBOL        is_key_active
  X:6336H         PUBLIC        scan_para
  C:2B2CH         SYMBOL        Com0021
  C:2B2CH         SYMBOL        L?0034
  C:2B2FH         SYMBOL        L?0035
  C:2B30H         SYMBOL        L?0036
  C:2B36H         SYMBOL        L?0037
  C:2B39H         SYMBOL        L?0038
  C:2B3DH         SYMBOL        L?0039
  C:2B43H         SYMBOL        L?0040
  C:2B46H         SYMBOL        L?0041
  -------         PROC          COM0021
  -------         ENDPROC       COM0021
  -------         PROC          _KEY_DRIVER_SCAN
  D:0001H         SYMBOL        _scan_para
  -------         DO            
  X:6206H         SYMBOL        key_event
  D:0007H         SYMBOL        cur_key_value
  X:6207H         SYMBOL        key_value
  C:121EH         SYMBOL        _notify
  C:123EH         SYMBOL        _scan_end
  -------         ENDDO         
  C:10B6H         LINE#         17
  C:10B6H         LINE#         19
  C:10B6H         LINE#         24
  C:10BBH         LINE#         25
  C:10BDH         LINE#         26
  C:10C1H         LINE#         30
  C:10C7H         LINE#         33
  C:10DAH         LINE#         34
  C:10DAH         LINE#         36
  C:10DAH         LINE#         38
  C:10E4H         LINE#         40
  C:10EDH         LINE#         46
  C:10F1H         LINE#         47
  C:10F1H         LINE#         48
  C:10F7H         LINE#         49
  C:10F9H         LINE#         50
  C:10FFH         LINE#         51
BL51 BANKED LINKER/LOCATER V6.22.4.0                                                  07/07/2026  17:35:16  PAGE 28


  C:10FFH         LINE#         52
  C:1102H         LINE#         53
  C:1102H         LINE#         56
  C:1116H         LINE#         57
  C:1116H         LINE#         59
  C:111DH         LINE#         60
  C:1123H         LINE#         62
  C:1123H         LINE#         65
  C:1134H         LINE#         66
  C:1134H         LINE#         67
  C:113FH         LINE#         69
  C:113FH         LINE#         72
  C:114BH         LINE#         73
  C:114BH         LINE#         80
  C:114FH         LINE#         81
  C:114FH         LINE#         82
  C:1156H         LINE#         83
  C:1156H         LINE#         84
  C:1158H         LINE#         85
  C:115EH         LINE#         86
  C:1160H         LINE#         88
  C:1160H         LINE#         91
  C:1160H         LINE#         92
  C:1168H         LINE#         93
  C:1168H         LINE#         94
  C:116BH         LINE#         96
  C:116BH         LINE#         101
  C:1173H         LINE#         102
  C:117FH         LINE#         103
  C:117FH         LINE#         104
  C:1184H         LINE#         105
  C:1188H         LINE#         106
  C:118BH         LINE#         108
  C:118BH         LINE#         109
  C:1191H         LINE#         110
  C:1191H         LINE#         111
  C:1191H         LINE#         113
  C:1193H         LINE#         118
  C:1193H         LINE#         120
  C:1193H         LINE#         125
  C:1197H         LINE#         126
  C:1197H         LINE#         128
  C:11A8H         LINE#         129
  C:11A8H         LINE#         133
  C:11B9H         LINE#         134
  C:11B9H         LINE#         154
  C:11B9H         LINE#         155
  C:11BBH         LINE#         157
  C:11BBH         LINE#         158
  C:11C8H         LINE#         160
  C:11CAH         LINE#         162
  C:11CAH         LINE#         164
  C:11CAH         LINE#         165
  C:11D5H         LINE#         166
  C:11D8H         LINE#         168
  C:11D8H         LINE#         169
  C:11D8H         LINE#         171
BL51 BANKED LINKER/LOCATER V6.22.4.0                                                  07/07/2026  17:35:16  PAGE 29


  C:11D8H         LINE#         172
  C:11D8H         LINE#         174
  C:11D8H         LINE#         175
  C:11D8H         LINE#         177
  C:11D8H         LINE#         179
  C:11E3H         LINE#         180
  C:11E3H         LINE#         181
  C:11EBH         LINE#         182
  C:11EBH         LINE#         186
  C:11F1H         LINE#         187
  C:11F1H         LINE#         188
  C:11F7H         LINE#         193
  C:11F9H         LINE#         194
  C:1205H         LINE#         195
  C:1205H         LINE#         196
  C:120AH         LINE#         197
  C:1219H         LINE#         199
  C:1219H         LINE#         201
  C:1219H         LINE#         202
  C:1219H         LINE#         204
  C:1219H         LINE#         207
  C:121EH         LINE#         208
  C:121EH         LINE#         210
  C:121EH         LINE#         211
  C:121EH         LINE#         213
  C:121EH         LINE#         216
  C:121EH         LINE#         218
  C:121EH         LINE#         219
  C:1222H         LINE#         220
  C:122AH         LINE#         222
  C:1234H         LINE#         223
  C:123EH         LINE#         226
  C:123EH         LINE#         235
  C:123EH         LINE#         237
  C:123EH         LINE#         238
  C:1248H         LINE#         241
  -------         ENDPROC       _KEY_DRIVER_SCAN
  -------         ENDMOD        KEY_DRIVER

  -------         MODULE        AD_KEY
  C:0000H         SYMBOL        _ICE_DUMMY_
  X:6267H         PUBLIC        ad_key_para
  C:1D5EH         PUBLIC        ad_key_handle
  X:627AH         SYMBOL        ad_key_scan_table
  X:628AH         SYMBOL        ad_key_event_table
  C:28BAH         PUBLIC        ad_key_get_key_val
  C:24ECH         SYMBOL        _ad_key_val_to_ad_key_index
  C:25CFH         SYMBOL        _ad_key_get_event
  C:2D2BH         SYMBOL        Com0036
  C:2D2BH         SYMBOL        L?0055
  -------         PROC          COM0036
  -------         ENDPROC       COM0036
  -------         PROC          _AD_KEY_VAL_TO_AD_KEY_INDEX
  D:0006H         SYMBOL        ad_key_val
  -------         DO            
  D:0005H         SYMBOL        i
  X:6207H         SYMBOL        ad_key_index
BL51 BANKED LINKER/LOCATER V6.22.4.0                                                  07/07/2026  17:35:16  PAGE 30


  -------         ENDDO         
  C:24ECH         LINE#         53
  C:24ECH         LINE#         54
  C:24ECH         LINE#         55
  C:24EEH         LINE#         56
  C:24F6H         LINE#         59
  C:24F6H         LINE#         60
  C:24F6H         LINE#         61
  C:250EH         LINE#         62
  C:250EH         LINE#         63
  C:2528H         LINE#         64
  C:252AH         LINE#         65
  C:252AH         LINE#         66
  C:252FH         LINE#         68
  C:2537H         LINE#         69
  -------         ENDPROC       _AD_KEY_VAL_TO_AD_KEY_INDEX
  -------         PROC          _AD_KEY_GET_EVENT
  D:0007H         SYMBOL        key_val
  D:0005H         SYMBOL        key_event
  -------         DO            
  D:0006H         SYMBOL        ret_key_event
  D:0004H         SYMBOL        key_event_index
  D:0003H         SYMBOL        i
  -------         ENDDO         
  C:25CFH         LINE#         79
  C:25CFH         LINE#         80
  C:25CFH         LINE#         81
  C:25D1H         LINE#         82
  C:25D2H         LINE#         83
  C:25D3H         LINE#         86
  C:25D7H         LINE#         87
  C:25D7H         LINE#         88
  C:25D8H         LINE#         89
  C:25DAH         LINE#         90
  C:25DEH         LINE#         91
  C:25DEH         LINE#         92
  C:25E0H         LINE#         93
  C:25E2H         LINE#         94
  C:25E6H         LINE#         95
  C:25E6H         LINE#         96
  C:25E8H         LINE#         97
  C:25EAH         LINE#         98
  C:25EEH         LINE#         99
  C:25EEH         LINE#         100
  C:25F0H         LINE#         101
  C:25F2H         LINE#         103
  C:25F2H         LINE#         104
  C:25F5H         LINE#         105
  C:25F5H         LINE#         107
  C:25FBH         LINE#         108
  C:25FBH         LINE#         109
  C:2602H         LINE#         110
  C:2602H         LINE#         111
  C:2611H         LINE#         112
  C:2613H         LINE#         113
  C:2613H         LINE#         114
  C:2616H         LINE#         116
BL51 BANKED LINKER/LOCATER V6.22.4.0                                                  07/07/2026  17:35:16  PAGE 31


  C:2618H         LINE#         117
  -------         ENDPROC       _AD_KEY_GET_EVENT
  -------         PROC          AD_KEY_GET_KEY_VAL
  -------         DO            
  X:6265H         SYMBOL        val
  X:6206H         SYMBOL        ret
  -------         ENDDO         
  C:28BAH         LINE#         130
  C:28BAH         LINE#         131
  C:28BAH         LINE#         133
  C:28C0H         LINE#         136
  C:28C8H         LINE#         137
  C:28C8H         LINE#         138
  C:28CDH         LINE#         139
  C:28DAH         LINE#         142
  C:28DAH         LINE#         144
  C:28EAH         LINE#         145
  C:28ECH         LINE#         146
  -------         ENDPROC       AD_KEY_GET_KEY_VAL
  -------         PROC          AD_KEY_HANDLE
  -------         DO            
  X:6206H         SYMBOL        ad_key_event
  -------         ENDDO         
  C:1D5EH         LINE#         148
  C:1D5EH         LINE#         149
  C:1D5EH         LINE#         150
  C:1D63H         LINE#         152
  C:1D6CH         LINE#         153
  C:1D6CH         LINE#         155
  C:1D6CH         LINE#         157
  C:1D79H         LINE#         158
  C:1D7EH         LINE#         159
  C:1D80H         LINE#         165
  C:1D8FH         LINE#         166
  C:1D8FH         LINE#         168
  C:1D98H         LINE#         169
  C:1DA1H         LINE#         175
  C:1DA7H         LINE#         177
  C:1DA7H         LINE#         179
  C:1DCDH         LINE#         180
  C:1DCDH         LINE#         183
  C:1DCDH         LINE#         187
  C:1DD0H         LINE#         188
  C:1DD0H         LINE#         190
  C:1DD0H         LINE#         194
  C:1DD0H         LINE#         196
  C:1DD0H         LINE#         201
  C:1DD0H         LINE#         203
  C:1DD0H         LINE#         207
  C:1DD0H         LINE#         211
  C:1DD0H         LINE#         215
  C:1DD2H         LINE#         216
  C:1DD4H         LINE#         218
  C:1DD4H         LINE#         223
  C:1DD6H         LINE#         224
  C:1DD8H         LINE#         226
  C:1DD8H         LINE#         231
BL51 BANKED LINKER/LOCATER V6.22.4.0                                                  07/07/2026  17:35:16  PAGE 32


  C:1DDAH         LINE#         232
  C:1DDCH         LINE#         234
  C:1DDCH         LINE#         238
  C:1DDCH         LINE#         243
  C:1DDCH         LINE#         248
  C:1DDEH         LINE#         249
  C:1DE0H         LINE#         251
  C:1DE0H         LINE#         257
  C:1DE2H         LINE#         258
  C:1DE4H         LINE#         260
  C:1DE4H         LINE#         266
  C:1DE6H         LINE#         267
  C:1DE8H         LINE#         269
  C:1DE8H         LINE#         273
  C:1DE8H         LINE#         277
  C:1DE8H         LINE#         283
  C:1DEEH         LINE#         284
  C:1DEEH         LINE#         285
  C:1DF0H         LINE#         286
  C:1DF2H         LINE#         287
  C:1DF9H         LINE#         288
  C:1DF9H         LINE#         289
  C:1DFEH         LINE#         290
  C:1DFEH         LINE#         291
  C:1DFEH         LINE#         293
  C:1DFEH         LINE#         299
  C:1E04H         LINE#         300
  C:1E04H         LINE#         303
  C:1E07H         LINE#         304
  C:1E07H         LINE#         306
  C:1E07H         LINE#         311
  C:1E0AH         LINE#         312
  C:1E0AH         LINE#         313
  C:1E0AH         LINE#         315
  C:1E0AH         LINE#         319
  C:1E0AH         LINE#         321
  C:1E0AH         LINE#         325
  C:1E0AH         LINE#         327
  C:1E0AH         LINE#         328
  C:1E0AH         LINE#         329
  C:1E0AH         LINE#         330
  -------         ENDPROC       AD_KEY_HANDLE
  -------         ENDMOD        AD_KEY

  -------         MODULE        USER_TEST
  C:0000H         SYMBOL        _ICE_DUMMY_
  B:0090H.7       PUBLIC        P17
  X:633BH         PUBLIC        flag_debug
  C:2B4DH         PUBLIC        debug_time_add
  C:2CE8H         PUBLIC        user_debug_pin_init
  -------         PROC          DEBUG_TIME_ADD
  -------         DO            
  X:6339H         SYMBOL        cnt
  -------         ENDDO         
  C:2B4DH         LINE#         12
  C:2B4DH         LINE#         13
  C:2B4DH         LINE#         16
BL51 BANKED LINKER/LOCATER V6.22.4.0                                                  07/07/2026  17:35:16  PAGE 33


  C:2B57H         LINE#         17
  C:2B66H         LINE#         19
  C:2B66H         LINE#         20
  C:2B6AH         LINE#         21
  C:2B6DH         LINE#         22
  C:2B6DH         LINE#         24
  -------         ENDPROC       DEBUG_TIME_ADD
  -------         PROC          USER_DEBUG_PIN_INIT
  C:2CE8H         LINE#         26
  C:2CE8H         LINE#         27
  C:2CE8H         LINE#         28
  C:2CEEH         LINE#         29
  C:2CF2H         LINE#         30
  C:2CF7H         LINE#         31
  C:2CF9H         LINE#         32
  -------         ENDPROC       USER_DEBUG_PIN_INIT
  -------         ENDMOD        USER_TEST

  -------         MODULE        LED
  C:0000H         SYMBOL        _ICE_DUMMY_
  B:0080H.0       PUBLIC        P00
  B:0080H.1       PUBLIC        P01
  B:0080H.2       PUBLIC        P02
  B:0080H.5       PUBLIC        P05
  B:0080H.6       PUBLIC        P06
  B:0090H.3       PUBLIC        P13
  B:00A0H.7       PUBLIC        P27
  B:00B0H.0       PUBLIC        P30
  X:6314H         PUBLIC        led_ctl
  X:6322H         PUBLIC        led_bat_level_sta
  C:2451H         PUBLIC        led_init
  C:2D57H         PUBLIC        led_yellow_on
  C:2DB1H         PUBLIC        led_yellow_off
  C:2D64H         PUBLIC        led_white_on
  C:2DB9H         PUBLIC        led_white_off
  C:2D3AH         PUBLIC        led_ctl_init
  C:29FFH         PUBLIC        led_status_switch
  C:2163H         PUBLIC        _led_status_set
  C:1883H         PUBLIC        led_red_blue_flash_1ms_isr
  C:1659H         PUBLIC        led_slow_adjust_isr
  C:0D5AH         PUBLIC        led_bat_instruction_timer_callback
  X:6323H         PUBLIC        led_charge_anim_phase
  X:6324H         PUBLIC        led_charge_anim_cnt
  C:1BF0H         SYMBOL        Com0081
  C:1BF0H         SYMBOL        L?0130
  C:1BFCH         SYMBOL        L?0131
  C:1C0AH         SYMBOL        L?0132
  C:1C0BH         SYMBOL        L?0133
  C:1C10H         SYMBOL        L?0134
  C:1C17H         SYMBOL        L?0135
  C:1C1AH         SYMBOL        L?0136
  C:1C1DH         SYMBOL        L?0137
  C:1C24H         SYMBOL        L?0138
  C:1C24H         SYMBOL        L?0139
  C:1C31H         SYMBOL        L?0141
  C:1C42H         SYMBOL        L?0142
  C:1C51H         SYMBOL        L?0143
BL51 BANKED LINKER/LOCATER V6.22.4.0                                                  07/07/2026  17:35:16  PAGE 34


  C:1C51H         SYMBOL        L?0144
  C:1C5AH         SYMBOL        L?0145
  C:1C68H         SYMBOL        L?0146
  C:1C68H         SYMBOL        L?0147
  C:1C70H         SYMBOL        L?0148
  C:1C70H         SYMBOL        L?0149
  C:1C78H         SYMBOL        L?0150
  C:1C78H         SYMBOL        L?0151
  C:1C80H         SYMBOL        L?0152
  C:1C8BH         SYMBOL        L?0153
  C:1C8CH         SYMBOL        L?0154
  C:1C93H         SYMBOL        L?0155
  C:1C93H         SYMBOL        L?0156
  C:1C99H         SYMBOL        L?0157
  C:1CA2H         SYMBOL        L?0158
  C:1CA2H         SYMBOL        L?0159
  -------         PROC          COM0081
  -------         ENDPROC       COM0081
  -------         PROC          LED_INIT
  C:2451H         LINE#         14
  C:2451H         LINE#         15
  C:2451H         LINE#         17
  C:2457H         LINE#         18
  C:245BH         LINE#         19
  C:245DH         LINE#         20
  C:2462H         LINE#         23
  C:2468H         LINE#         24
  C:246CH         LINE#         25
  C:246EH         LINE#         26
  C:2471H         LINE#         29
  C:2471H         LINE#         30
  C:2474H         LINE#         31
  C:2476H         LINE#         32
  C:247BH         LINE#         35
  C:2480H         LINE#         36
  C:2484H         LINE#         37
  C:2486H         LINE#         38
  C:2489H         LINE#         41
  C:2489H         LINE#         42
  C:248CH         LINE#         43
  C:248EH         LINE#         44
  C:2491H         LINE#         47
  C:2495H         LINE#         48
  C:2499H         LINE#         49
  C:249BH         LINE#         50
  C:249EH         LINE#         51
  -------         ENDPROC       LED_INIT
  -------         PROC          LED_CTL_INIT
  C:2D3AH         LINE#         53
  C:2D3AH         LINE#         54
  C:2D3AH         LINE#         63
  -------         ENDPROC       LED_CTL_INIT
  -------         PROC          LED_YELLOW_ON
  C:2D57H         LINE#         66
  C:2D57H         LINE#         67
  C:2D57H         LINE#         69
  C:2D5DH         LINE#         71
BL51 BANKED LINKER/LOCATER V6.22.4.0                                                  07/07/2026  17:35:16  PAGE 35


  C:2D63H         LINE#         72
  -------         ENDPROC       LED_YELLOW_ON
  -------         PROC          LED_YELLOW_OFF
  C:2DB1H         LINE#         83
  C:2DB1H         LINE#         84
  C:2DB1H         LINE#         85
  C:2DB3H         LINE#         86
  C:2DB8H         LINE#         87
  -------         ENDPROC       LED_YELLOW_OFF
  -------         PROC          LED_WHITE_ON
  C:2D64H         LINE#         89
  C:2D64H         LINE#         90
  C:2D64H         LINE#         92
  C:2D6AH         LINE#         94
  C:2D70H         LINE#         95
  -------         ENDPROC       LED_WHITE_ON
  -------         PROC          LED_WHITE_OFF
  C:2DB9H         LINE#         106
  C:2DB9H         LINE#         107
  C:2DB9H         LINE#         108
  C:2DBBH         LINE#         109
  C:2DC0H         LINE#         110
  -------         ENDPROC       LED_WHITE_OFF
  -------         PROC          LED_STATUS_SWITCH
  C:29FFH         LINE#         112
  C:29FFH         LINE#         113
  C:29FFH         LINE#         115
  C:2A13H         LINE#         116
  C:2A13H         LINE#         117
  C:2A13H         LINE#         121
  C:2A15H         LINE#         122
  C:2A17H         LINE#         123
  C:2A17H         LINE#         128
  C:2A19H         LINE#         129
  C:2A1BH         LINE#         130
  C:2A1BH         LINE#         134
  C:2A1DH         LINE#         135
  C:2A1FH         LINE#         136
  C:2A1FH         LINE#         142
  C:2A21H         LINE#         143
  C:2A23H         LINE#         144
  C:2A23H         LINE#         155
  C:2A28H         LINE#         156
  C:2A28H         LINE#         157
  C:2A28H         LINE#         158
  -------         ENDPROC       LED_STATUS_SWITCH
  -------         PROC          _LED_STATUS_SET
  X:6207H         SYMBOL        status
  C:2163H         LINE#         161
  C:2168H         LINE#         162
  C:2168H         LINE#         164
  C:2172H         LINE#         165
  C:2179H         LINE#         167
  C:217DH         LINE#         169
  C:2191H         LINE#         170
  C:2191H         LINE#         171
  C:2191H         LINE#         172
BL51 BANKED LINKER/LOCATER V6.22.4.0                                                  07/07/2026  17:35:16  PAGE 36


  C:2194H         LINE#         173
  C:2197H         LINE#         174
  C:2199H         LINE#         175
  C:219BH         LINE#         176
  C:219DH         LINE#         177
  C:219DH         LINE#         178
  C:21A0H         LINE#         179
  C:21A2H         LINE#         180
  C:21A4H         LINE#         182
  C:21A4H         LINE#         183
  C:21A6H         LINE#         184
  C:21A6H         LINE#         185
  C:21A9H         LINE#         186
  C:21ABH         LINE#         187
  C:21ADH         LINE#         189
  C:21B0H         LINE#         190
  C:21B2H         LINE#         192
  C:21B2H         LINE#         193
  C:21B4H         LINE#         194
  C:21B6H         LINE#         197
  C:21B9H         LINE#         198
  C:21BCH         LINE#         199
  C:21BEH         LINE#         201
  C:21BEH         LINE#         202
  C:21C1H         LINE#         203
  C:21C4H         LINE#         205
  C:21CEH         LINE#         206
  C:21CEH         LINE#         207
  C:21CEH         LINE#         209
  C:21D6H         LINE#         210
  -------         ENDPROC       _LED_STATUS_SET
  -------         PROC          LED_RED_BLUE_FLASH_1MS_ISR
  -------         DO            
  X:6261H         SYMBOL        time_in_cycle
  -------         ENDDO         
  C:1883H         LINE#         284
  C:1883H         LINE#         285
  C:1883H         LINE#         288
  C:188EH         LINE#         289
  C:188EH         LINE#         291
  C:188EH         LINE#         293
  C:189AH         LINE#         296
  C:18A3H         LINE#         297
  C:18A3H         LINE#         298
  C:18B0H         LINE#         301
  C:18BBH         LINE#         302
  C:18BBH         LINE#         303
  C:18BDH         LINE#         304
  C:18BFH         LINE#         305
  C:18C0H         LINE#         306
  C:18C9H         LINE#         307
  C:18C9H         LINE#         308
  C:18C9H         LINE#         309
  C:18C9H         LINE#         310
  C:18CBH         LINE#         311
  C:18D4H         LINE#         312
  C:18D4H         LINE#         313
BL51 BANKED LINKER/LOCATER V6.22.4.0                                                  07/07/2026  17:35:16  PAGE 37


  C:18D6H         LINE#         314
  C:18D8H         LINE#         315
  C:18D9H         LINE#         317
  C:18D9H         LINE#         318
  C:18DBH         LINE#         319
  C:18DDH         LINE#         320
  C:18DDH         LINE#         321
  C:18DEH         LINE#         323
  C:18E7H         LINE#         324
  C:18E7H         LINE#         325
  C:18F8H         LINE#         327
  C:1904H         LINE#         328
  C:1904H         LINE#         329
  C:1906H         LINE#         330
  C:1908H         LINE#         331
  C:1909H         LINE#         340
  C:1913H         LINE#         341
  C:1913H         LINE#         343
  C:1920H         LINE#         344
  C:1920H         LINE#         345
  C:1922H         LINE#         346
  C:1925H         LINE#         348
  C:1925H         LINE#         351
  C:1936H         LINE#         353
  C:1941H         LINE#         354
  C:1941H         LINE#         355
  C:1943H         LINE#         356
  C:1948H         LINE#         357
  C:1948H         LINE#         358
  C:194AH         LINE#         359
  C:194BH         LINE#         361
  C:194BH         LINE#         362
  C:194DH         LINE#         363
  C:194DH         LINE#         364
  C:194EH         LINE#         367
  C:194EH         LINE#         368
  C:1950H         LINE#         369
  C:1958H         LINE#         370
  C:1958H         LINE#         371
  C:195AH         LINE#         372
  C:195BH         LINE#         374
  C:195BH         LINE#         375
  C:195DH         LINE#         376
  C:195DH         LINE#         377
  C:195DH         LINE#         378
  C:195EH         LINE#         380
  C:195EH         LINE#         381
  C:1960H         LINE#         382
  C:1962H         LINE#         383
  C:196CH         LINE#         384
  C:196CH         LINE#         385
  -------         ENDPROC       LED_RED_BLUE_FLASH_1MS_ISR
  C:176CH         SYMBOL        L?0140
  -------         PROC          LED_SLOW_ADJUST_ISR
  -------         DO            
  X:6313H         SYMBOL        cnt
  -------         ENDDO         
BL51 BANKED LINKER/LOCATER V6.22.4.0                                                  07/07/2026  17:35:16  PAGE 38


  C:1659H         LINE#         388
  C:1659H         LINE#         389
  C:1659H         LINE#         390
  C:166BH         LINE#         393
  C:166BH         LINE#         399
  C:1677H         LINE#         400
  C:1677H         LINE#         401
  C:1683H         LINE#         402
  C:1683H         LINE#         403
  C:1683H         LINE#         405
  C:1683H         LINE#         408
  C:1683H         LINE#         410
  C:1689H         LINE#         411
  C:1689H         LINE#         413
  C:1693H         LINE#         416
  C:1699H         LINE#         417
  C:16A2H         LINE#         418
  C:16A2H         LINE#         419
  C:16A3H         LINE#         420
  C:16AEH         LINE#         421
  C:16AEH         LINE#         422
  C:16AFH         LINE#         423
  C:16B8H         LINE#         425
  C:16B8H         LINE#         426
  C:16BBH         LINE#         427
  C:16BBH         LINE#         429
  C:16C8H         LINE#         431
  C:16C8H         LINE#         432
  C:16C8H         LINE#         433
  C:16C8H         LINE#         434
  C:16C8H         LINE#         435
  C:16C8H         LINE#         436
  C:16CBH         LINE#         438
  C:16CBH         LINE#         442
  C:16D5H         LINE#         443
  C:16DAH         LINE#         446
  C:16E3H         LINE#         447
  C:16E3H         LINE#         451
  C:16F3H         LINE#         452
  C:16F3H         LINE#         454
  C:16F9H         LINE#         456
  C:16F9H         LINE#         458
  C:1702H         LINE#         459
  C:1702H         LINE#         460
  C:1704H         LINE#         461
  C:1705H         LINE#         462
  C:170EH         LINE#         464
  C:170EH         LINE#         465
  C:1711H         LINE#         466
  C:1711H         LINE#         468
  C:171BH         LINE#         470
  C:171BH         LINE#         471
  C:171BH         LINE#         472
  C:171BH         LINE#         473
  C:171BH         LINE#         474
  C:171DH         LINE#         475
  C:1726H         LINE#         476
BL51 BANKED LINKER/LOCATER V6.22.4.0                                                  07/07/2026  17:35:16  PAGE 39


  C:1726H         LINE#         479
  C:172EH         LINE#         480
  C:172EH         LINE#         481
  C:1730H         LINE#         482
  C:1735H         LINE#         483
  C:173EH         LINE#         485
  C:173EH         LINE#         486
  C:1749H         LINE#         487
  C:1749H         LINE#         489
  C:1752H         LINE#         491
  C:1752H         LINE#         492
  C:175DH         LINE#         493
  C:175DH         LINE#         494
  C:175DH         LINE#         495
  C:175DH         LINE#         496
  C:175DH         LINE#         500
  C:175DH         LINE#         502
  C:1763H         LINE#         503
  C:1769H         LINE#         504
  C:1769H         LINE#         505
  C:176BH         LINE#         510
  C:176BH         LINE#         511
  C:176BH         LINE#         513
  -------         ENDPROC       LED_SLOW_ADJUST_ISR
  -------         PROC          LED_BAT_INSTRUCTION_TIMER_CALLBACK
  C:0D5AH         LINE#         517
  C:0D5AH         LINE#         518
  C:0D5AH         LINE#         519
  C:0D60H         LINE#         520
  C:0D60H         LINE#         521
  C:0D62H         LINE#         522
  C:0D64H         LINE#         523
  C:0D66H         LINE#         524
  C:0D68H         LINE#         525
  C:0D69H         LINE#         526
  C:0D70H         LINE#         527
  C:0D70H         LINE#         528
  C:0D72H         LINE#         529
  C:0D74H         LINE#         530
  C:0D76H         LINE#         531
  C:0D78H         LINE#         532
  C:0D7BH         LINE#         533
  C:0D7FH         LINE#         534
  C:0D82H         LINE#         535
  C:0D84H         LINE#         536
  C:0D8CH         LINE#         537
  C:0D8CH         LINE#         538
  C:0D95H         LINE#         539
  C:0D9DH         LINE#         540
  C:0D9DH         LINE#         541
  C:0DA1H         LINE#         543
  C:0DACH         LINE#         545
  C:0DACH         LINE#         546
  C:0DAEH         LINE#         547
  C:0DB4H         LINE#         548
  C:0DB5H         LINE#         549
  C:0DC1H         LINE#         551
BL51 BANKED LINKER/LOCATER V6.22.4.0                                                  07/07/2026  17:35:16  PAGE 40


  C:0DC1H         LINE#         552
  C:0DC3H         LINE#         553
  C:0DC9H         LINE#         554
  C:0DCAH         LINE#         555
  C:0DD6H         LINE#         557
  C:0DD6H         LINE#         558
  C:0DD8H         LINE#         559
  C:0DDBH         LINE#         560
  C:0DDDH         LINE#         562
  C:0DDDH         LINE#         563
  C:0DE4H         LINE#         564
  C:0DEAH         LINE#         565
  C:0DEAH         LINE#         566
  C:0DEAH         LINE#         567
  C:0DEBH         LINE#         568
  C:0DF6H         LINE#         569
  C:0DF6H         LINE#         572
  C:0E05H         LINE#         573
  C:0E05H         LINE#         574
  C:0E0CH         LINE#         575
  C:0E1DH         LINE#         576
  C:0E1DH         LINE#         577
  C:0E1DH         LINE#         578
  C:0E22H         LINE#         579
  C:0E24H         LINE#         580
  C:0E24H         LINE#         581
  C:0E29H         LINE#         582
  C:0E2BH         LINE#         583
  C:0E2BH         LINE#         584
  C:0E30H         LINE#         585
  C:0E32H         LINE#         586
  C:0E32H         LINE#         587
  C:0E37H         LINE#         588
  C:0E37H         LINE#         589
  C:0E37H         LINE#         598
  C:0E68H         LINE#         602
  C:0E68H         LINE#         603
  C:0E6EH         LINE#         605
  C:0E70H         LINE#         606
  C:0E81H         LINE#         608
  C:0E81H         LINE#         609
  C:0E87H         LINE#         610
  C:0E89H         LINE#         611
  C:0E8BH         LINE#         612
  C:0E9CH         LINE#         614
  C:0E9CH         LINE#         615
  C:0EA2H         LINE#         616
  C:0EA4H         LINE#         617
  C:0EA6H         LINE#         618
  C:0EB5H         LINE#         620
  C:0EB5H         LINE#         621
  C:0EBBH         LINE#         622
  C:0EBDH         LINE#         623
  C:0EBDH         LINE#         624
  C:0EBDH         LINE#         626
  C:0EC7H         LINE#         627
  C:0EC7H         LINE#         628
BL51 BANKED LINKER/LOCATER V6.22.4.0                                                  07/07/2026  17:35:16  PAGE 41


  C:0ECEH         LINE#         629
  C:0ECEH         LINE#         630
  C:0ED0H         LINE#         631
  C:0ED2H         LINE#         632
  C:0ED4H         LINE#         633
  C:0ED6H         LINE#         634
  C:0ED7H         LINE#         635
  C:0EDFH         LINE#         636
  C:0EDFH         LINE#         638
  C:0EE4H         LINE#         639
  C:0EE4H         LINE#         640
  C:0EE6H         LINE#         641
  C:0EE8H         LINE#         643
  C:0EE8H         LINE#         644
  C:0EEAH         LINE#         645
  C:0EEAH         LINE#         647
  C:0EEFH         LINE#         648
  C:0EEFH         LINE#         649
  C:0EF1H         LINE#         650
  C:0EF3H         LINE#         652
  C:0EF3H         LINE#         653
  C:0EF5H         LINE#         654
  C:0EF5H         LINE#         656
  C:0EFAH         LINE#         657
  C:0EFAH         LINE#         658
  C:0EFCH         LINE#         659
  C:0EFEH         LINE#         661
  C:0EFEH         LINE#         662
  C:0F00H         LINE#         663
  C:0F00H         LINE#         665
  C:0F09H         LINE#         666
  C:0F09H         LINE#         667
  C:0F0BH         LINE#         668
  C:0F0BH         LINE#         669
  C:0F0BH         LINE#         670
  -------         ENDPROC       LED_BAT_INSTRUCTION_TIMER_CALLBACK
  -------         ENDMOD        LED

  -------         MODULE        BATTERY_MONITOR
  C:0000H         SYMBOL        _ICE_DUMMY_
  X:62ABH         PUBLIC        bat_percent
  X:62ACH         PUBLIC        is_sent_low_bat_alert
  X:62ADH         PUBLIC        is_turn_off_by_low_bat
  X:62AEH         PUBLIC        avg_voltage_mv
  C:20E1H         PUBLIC        _get_battery_percentage_by_voltage
  C:2D0BH         PUBLIC        _get_battery_voltage_by_adc
  C:1249H         PUBLIC        battery_monitor_handle
  C:27E0H         PUBLIC        bat_vol_update_timer_callback
  C:2A29H         PUBLIC        bat_vol_buff_add_timer_callback
  C:29A9H         PUBLIC        bat_vol_buff_get_avg_timer_callback
  C:2392H         PUBLIC        send_low_bat_timer_callback
  C:1A47H         PUBLIC        battery_voltage_update_by_isr
  C:2C85H         PUBLIC        _bat_vol_history_buff_init
  C:2C58H         PUBLIC        bat_percent_update_time_add
  C:2DC1H         PUBLIC        bat_percent_update_time_reset
  C:2C9BH         PUBLIC        bat_percent_update_time_is_comes
  X:62B0H         SYMBOL        is_bat_vol_buff_add_enable
BL51 BANKED LINKER/LOCATER V6.22.4.0                                                  07/07/2026  17:35:16  PAGE 42


  X:62B1H         SYMBOL        is_bat_vol_buff_get_avg_enable
  X:62B2H         SYMBOL        bat_vol_update_sta
  X:62B3H         SYMBOL        bat_vol_update_cnt
  X:62B5H         SYMBOL        bat_vol_history_buff
  X:62C9H         SYMBOL        bat_vol_history_buff_idx
  X:62CAH         SYMBOL        voltage_mv
  X:62CCH         SYMBOL        max_voltage_mv
  X:62CEH         SYMBOL        percent
  X:62CFH         SYMBOL        is_send_low_bat_repeatedly_enable
  X:62D0H         SYMBOL        bat_percent_update_time_cnt
  C:2B0AH         PUBLIC        _bat_vol_history_buff_add
  C:2661H         PUBLIC        bat_vol_history_buff_get_avg
  C:224BH         SYMBOL        Com004C
  C:224BH         SYMBOL        L?0077
  C:224BH         SYMBOL        L?0078
  C:2259H         SYMBOL        L?0079
  C:2261H         SYMBOL        L?0080
  C:2264H         SYMBOL        L?0081
  C:226BH         SYMBOL        L?0082
  C:226BH         SYMBOL        L?0083
  C:2277H         SYMBOL        L?0084
  C:2289H         SYMBOL        L?0085
  C:2299H         SYMBOL        L?0086
  C:22A6H         SYMBOL        L?0087
  C:22B2H         SYMBOL        L?0088
  -------         PROC          COM004C
  -------         ENDPROC       COM004C
  -------         PROC          BAT_PERCENT_UPDATE_TIME_ADD
  C:2C58H         LINE#         44
  C:2C58H         LINE#         45
  C:2C58H         LINE#         46
  C:2C67H         LINE#         47
  C:2C67H         LINE#         48
  C:2C6EH         LINE#         49
  C:2C6EH         LINE#         50
  -------         ENDPROC       BAT_PERCENT_UPDATE_TIME_ADD
  -------         PROC          BAT_PERCENT_UPDATE_TIME_RESET
  C:2DC1H         LINE#         53
  C:2DC1H         LINE#         54
  C:2DC1H         LINE#         55
  C:2DC8H         LINE#         56
  -------         ENDPROC       BAT_PERCENT_UPDATE_TIME_RESET
  -------         PROC          BAT_PERCENT_UPDATE_TIME_IS_COMES
  C:2C9BH         LINE#         59
  C:2C9BH         LINE#         60
  C:2C9BH         LINE#         61
  C:2CAAH         LINE#         62
  C:2CAAH         LINE#         63
  C:2CADH         LINE#         64
  C:2CADH         LINE#         66
  C:2CADH         LINE#         67
  C:2CAFH         LINE#         68
  C:2CAFH         LINE#         69
  -------         ENDPROC       BAT_PERCENT_UPDATE_TIME_IS_COMES
  -------         PROC          SEND_LOW_BAT_TIMER_CALLBACK
  -------         DO            
  X:629EH         SYMBOL        cnt
BL51 BANKED LINKER/LOCATER V6.22.4.0                                                  07/07/2026  17:35:16  PAGE 43


  X:62A2H         SYMBOL        is_first_time_to_send
  -------         ENDDO         
  C:2392H         LINE#         72
  C:2392H         LINE#         73
  C:2392H         LINE#         82
  C:2398H         LINE#         83
  C:2398H         LINE#         84
  C:23B1H         LINE#         86
  C:23D0H         LINE#         87
  C:23D0H         LINE#         88
  C:23D6H         LINE#         89
  C:23D6H         LINE#         90
  C:23D8H         LINE#         91
  C:23D8H         LINE#         93
  C:23E2H         LINE#         94
  C:23E5H         LINE#         95
  C:23E5H         LINE#         96
  C:23E7H         LINE#         98
  C:23E7H         LINE#         99
  C:23F1H         LINE#         102
  C:23F7H         LINE#         103
  C:23F7H         LINE#         104
  -------         ENDPROC       SEND_LOW_BAT_TIMER_CALLBACK
  -------         PROC          BAT_VOL_BUFF_ADD_TIMER_CALLBACK
  -------         DO            
  X:62A3H         SYMBOL        cnt
  -------         ENDDO         
  C:2A29H         LINE#         107
  C:2A29H         LINE#         108
  C:2A29H         LINE#         110
  C:2A32H         LINE#         111
  C:2A42H         LINE#         112
  C:2A42H         LINE#         113
  C:2A4CH         LINE#         114
  C:2A52H         LINE#         115
  C:2A52H         LINE#         116
  -------         ENDPROC       BAT_VOL_BUFF_ADD_TIMER_CALLBACK
  -------         PROC          BAT_VOL_BUFF_GET_AVG_TIMER_CALLBACK
  -------         DO            
  X:62A7H         SYMBOL        cnt
  -------         ENDDO         
  C:29A9H         LINE#         119
  C:29A9H         LINE#         120
  C:29A9H         LINE#         122
  C:29B2H         LINE#         123
  C:29C3H         LINE#         124
  C:29C3H         LINE#         125
  C:29CDH         LINE#         126
  C:29D3H         LINE#         127
  C:29D3H         LINE#         128
  -------         ENDPROC       BAT_VOL_BUFF_GET_AVG_TIMER_CALLBACK
  -------         PROC          BAT_VOL_UPDATE_TIMER_CALLBACK
  C:27E0H         LINE#         131
  C:27E0H         LINE#         132
  C:27E0H         LINE#         133
  C:27E6H         LINE#         134
  C:27E6H         LINE#         135
BL51 BANKED LINKER/LOCATER V6.22.4.0                                                  07/07/2026  17:35:16  PAGE 44


  C:27EAH         LINE#         136
  C:27EFH         LINE#         137
  C:27F1H         LINE#         138
  C:27F9H         LINE#         139
  C:27F9H         LINE#         142
  C:27F9H         LINE#         144
  C:2803H         LINE#         145
  C:2812H         LINE#         146
  C:2812H         LINE#         152
  C:2818H         LINE#         153
  C:2818H         LINE#         154
  -------         ENDPROC       BAT_VOL_UPDATE_TIMER_CALLBACK
  -------         PROC          _GET_BATTERY_VOLTAGE_BY_ADC
  D:0006H         SYMBOL        adc_val
  -------         DO            
  D:0006H         SYMBOL        voltage_mv
  -------         ENDDO         
  C:2D0BH         LINE#         157
  C:2D0BH         LINE#         158
  C:2D0BH         LINE#         159
  -------         ENDPROC       _GET_BATTERY_VOLTAGE_BY_ADC
  -------         PROC          _GET_BATTERY_PERCENTAGE_BY_VOLTAGE
  X:6239H         SYMBOL        voltage_mv
  -------         DO            
  X:623BH         SYMBOL        percentage
  -------         ENDDO         
  C:20E1H         LINE#         198
  C:20E9H         LINE#         199
  C:20E9H         LINE#         201
  C:20F1H         LINE#         202
  C:20F1H         LINE#         203
  C:20F4H         LINE#         204
  C:20F4H         LINE#         205
  C:2104H         LINE#         206
  C:2104H         LINE#         207
  C:2107H         LINE#         208
  C:2107H         LINE#         210
  C:2120H         LINE#         211
  C:2120H         LINE#         214
  C:2133H         LINE#         215
  C:2139H         LINE#         216
  C:2139H         LINE#         220
  C:2152H         LINE#         222
  C:2162H         LINE#         223
  -------         ENDPROC       _GET_BATTERY_PERCENTAGE_BY_VOLTAGE
  -------         PROC          _BAT_VOL_HISTORY_BUFF_INIT
  D:0006H         SYMBOL        voltage_mv
  -------         DO            
  D:0005H         SYMBOL        i
  -------         ENDDO         
  C:2C85H         LINE#         225
  C:2C85H         LINE#         226
  C:2C85H         LINE#         228
  C:2C87H         LINE#         229
  C:2C87H         LINE#         230
  C:2C90H         LINE#         231
  C:2C95H         LINE#         232
BL51 BANKED LINKER/LOCATER V6.22.4.0                                                  07/07/2026  17:35:16  PAGE 45


  C:2C9AH         LINE#         233
  -------         ENDPROC       _BAT_VOL_HISTORY_BUFF_INIT
  -------         PROC          _BAT_VOL_HISTORY_BUFF_ADD
  D:0006H         SYMBOL        voltage_mv
  C:2B0AH         LINE#         235
  C:2B0AH         LINE#         236
  C:2B0AH         LINE#         237
  C:2B16H         LINE#         238
  C:2B2BH         LINE#         244
  -------         ENDPROC       _BAT_VOL_HISTORY_BUFF_ADD
  -------         PROC          BAT_VOL_HISTORY_BUFF_GET_AVG
  -------         DO            
  X:6206H         SYMBOL        i
  X:6207H         SYMBOL        ret
  -------         ENDDO         
  C:2661H         LINE#         247
  C:2661H         LINE#         248
  C:2661H         LINE#         250
  C:266BH         LINE#         251
  C:2670H         LINE#         252
  C:2670H         LINE#         253
  C:268EH         LINE#         254
  C:2698H         LINE#         255
  -------         ENDPROC       BAT_VOL_HISTORY_BUFF_GET_AVG
  -------         PROC          BATTERY_VOLTAGE_UPDATE_BY_ISR
  -------         DO            
  X:6235H         SYMBOL        adc_val
  X:6237H         SYMBOL        cur_voltage_mv
  -------         ENDDO         
  C:1A47H         LINE#         306
  C:1A47H         LINE#         307
  C:1A47H         LINE#         308
  C:1A4EH         LINE#         309
  C:1A54H         LINE#         312
  C:1A5FH         LINE#         313
  C:1A5FH         LINE#         314
  C:1A64H         LINE#         315
  C:1A71H         LINE#         317
  C:1A84H         LINE#         320
  C:1A8EH         LINE#         321
  C:1A8EH         LINE#         323
  C:1A94H         LINE#         325
  C:1A9FH         LINE#         327
  C:1AAEH         LINE#         328
  C:1ABEH         LINE#         330
  C:1AC3H         LINE#         333
  C:1ACCH         LINE#         335
  C:1AD2H         LINE#         337
  C:1ADCH         LINE#         339
  C:1ADCH         LINE#         353
  C:1AE3H         LINE#         354
  C:1AE3H         LINE#         356
  C:1AE9H         LINE#         358
  C:1AF0H         LINE#         359
  C:1AF4H         LINE#         363
  C:1AF5H         LINE#         364
  C:1AFCH         LINE#         365
BL51 BANKED LINKER/LOCATER V6.22.4.0                                                  07/07/2026  17:35:16  PAGE 46


  C:1AFCH         LINE#         367
  C:1B11H         LINE#         368
  C:1B11H         LINE#         369
  C:1B20H         LINE#         370
  C:1B20H         LINE#         371
  C:1B20H         LINE#         372
  C:1B20H         LINE#         373
  -------         ENDPROC       BATTERY_VOLTAGE_UPDATE_BY_ISR
  -------         PROC          BATTERY_MONITOR_HANDLE
  C:1249H         LINE#         376
  C:1249H         LINE#         377
  C:1249H         LINE#         387
  C:1256H         LINE#         388
  C:1256H         LINE#         390
  C:1256H         LINE#         393
  C:125CH         LINE#         394
  C:125CH         LINE#         395
  C:1267H         LINE#         396
  C:126CH         LINE#         397
  C:126CH         LINE#         400
  C:1272H         LINE#         401
  C:1272H         LINE#         402
  C:127DH         LINE#         404
  C:1283H         LINE#         407
  C:1293H         LINE#         410
  C:1298H         LINE#         411
  C:1298H         LINE#         413
  C:129EH         LINE#         414
  C:129EH         LINE#         415
  C:12A1H         LINE#         418
  C:12ADH         LINE#         419
  C:12ADH         LINE#         421
  C:12B6H         LINE#         422
  C:12B6H         LINE#         423
  C:12B9H         LINE#         424
  C:12B9H         LINE#         425
  C:12BBH         LINE#         426
  C:12C8H         LINE#         427
  C:12C8H         LINE#         429
  C:12D1H         LINE#         430
  C:12D1H         LINE#         431
  C:12D4H         LINE#         432
  C:12D4H         LINE#         433
  C:12D4H         LINE#         436
  C:12E2H         LINE#         437
  C:12E8H         LINE#         439
  C:12E8H         LINE#         458
  C:1305H         LINE#         463
  C:1305H         LINE#         464
  C:1308H         LINE#         465
  C:1309H         LINE#         467
  C:1321H         LINE#         471
  C:1321H         LINE#         472
  C:1325H         LINE#         475
  C:1326H         LINE#         477
  C:1344H         LINE#         481
  C:1344H         LINE#         482
BL51 BANKED LINKER/LOCATER V6.22.4.0                                                  07/07/2026  17:35:16  PAGE 47


  C:134AH         LINE#         485
  C:1359H         LINE#         486
  C:1359H         LINE#         488
  C:1362H         LINE#         491
  C:1368H         LINE#         492
  C:1368H         LINE#         494
  C:136EH         LINE#         495
  C:136EH         LINE#         496
  C:1373H         LINE#         497
  C:1373H         LINE#         500
  C:1379H         LINE#         501
  C:1379H         LINE#         502
  C:137EH         LINE#         504
  C:1385H         LINE#         505
  C:1388H         LINE#         506
  C:138FH         LINE#         507
  C:138FH         LINE#         510
  C:1392H         LINE#         511
  C:1392H         LINE#         512
  C:1394H         LINE#         517
  C:13A9H         LINE#         518
  C:13A9H         LINE#         523
  C:13AFH         LINE#         524
  C:13AFH         LINE#         525
  C:13B2H         LINE#         526
  C:13B2H         LINE#         528
  C:13B7H         LINE#         529
  C:13BDH         LINE#         530
  C:13BDH         LINE#         533
  C:13C3H         LINE#         534
  C:13C3H         LINE#         535
  C:13C8H         LINE#         536
  C:13CDH         LINE#         539
  C:13D6H         LINE#         541
  C:13D6H         LINE#         542
  C:13D6H         LINE#         543
  -------         ENDPROC       BATTERY_MONITOR_HANDLE
  -------         ENDMOD        BATTERY_MONITOR

  -------         MODULE        BLUETOOTH_IC_HANDLE
  C:0000H         SYMBOL        _ICE_DUMMY_
  B:00A0H.3       PUBLIC        P23
  X:633CH         PUBLIC        ble_ic
  C:2BDEH         PUBLIC        bluetooth_ic_handle_init
  C:2B8BH         PUBLIC        ble_ic_enable
  C:2D49H         PUBLIC        ble_ic_disable_pre
  C:2D1BH         PUBLIC        ble_ic_disable_post
  -------         PROC          BLE_IC_ENABLE
  C:2B8BH         LINE#         9
  C:2B8BH         LINE#         10
  C:2B8BH         LINE#         11
  C:2B8DH         LINE#         12
  C:2B94H         LINE#         13
  C:2B99H         LINE#         14
  C:2B9FH         LINE#         17
  -------         ENDPROC       BLE_IC_ENABLE
  -------         PROC          BLE_IC_DISABLE_PRE
BL51 BANKED LINKER/LOCATER V6.22.4.0                                                  07/07/2026  17:35:16  PAGE 48


  C:2D49H         LINE#         22
  C:2D49H         LINE#         23
  C:2D49H         LINE#         24
  C:2D4EH         LINE#         28
  -------         ENDPROC       BLE_IC_DISABLE_PRE
  -------         PROC          BLE_IC_DISABLE_POST
  C:2D1BH         LINE#         33
  C:2D1BH         LINE#         34
  C:2D1BH         LINE#         36
  C:2D1DH         LINE#         37
  C:2D22H         LINE#         40
  -------         ENDPROC       BLE_IC_DISABLE_POST
  -------         PROC          BLUETOOTH_IC_HANDLE_INIT
  C:2BDEH         LINE#         44
  C:2BDEH         LINE#         45
  C:2BDEH         LINE#         47
  C:2BE4H         LINE#         48
  C:2BE8H         LINE#         49
  C:2BEDH         LINE#         50
  C:2BEFH         LINE#         52
  C:2BF4H         LINE#         55
  C:2BF7H         LINE#         56
  -------         ENDPROC       BLUETOOTH_IC_HANDLE_INIT
  -------         ENDMOD        BLUETOOTH_IC_HANDLE

  -------         MODULE        CHARGE_DET
  C:0000H         SYMBOL        _ICE_DUMMY_
  B:00A0H.1       PUBLIC        P21
  B:00A0H.2       PUBLIC        P22
  X:62F1H         PUBLIC        is_in_charging_by_solar_panel
  X:62F2H         PUBLIC        is_in_charging_by_charger
  X:62F3H         PUBLIC        is_in_charging
  X:62F4H         PUBLIC        is_charging_ic_stop
  X:62F5H         PUBLIC        is_in_discharging
  X:62F6H         PUBLIC        is_detect_discharge_signal
  C:2BF8H         PUBLIC        charge_det_init
  C:152EH         PUBLIC        charge_det
  C:0F0CH         PUBLIC        detect_1khz_signal_100us
  C:13D7H         PUBLIC        detect_discharge_1khz_signal_100us
  C:0045H         PUBLIC        charge_det_time_add
  B:0022H.6       PUBLIC        flag_is_time_to_det_charge
  X:62F7H         PUBLIC        is_charging_by_solar_panel_cnt
  X:62F8H         PUBLIC        is_not_charging_by_solar_panel_cnt
  C:29D4H         SYMBOL        Com0051
  C:29D4H         SYMBOL        L?0082
  C:29D7H         SYMBOL        L?0083
  C:29D8H         SYMBOL        L?0084
  C:29DEH         SYMBOL        L?0085
  C:29E2H         SYMBOL        L?0086
  C:29EEH         SYMBOL        L?0087
  C:29EEH         SYMBOL        L?0088
  C:29F5H         SYMBOL        L?0089
  -------         PROC          COM0051
  -------         ENDPROC       COM0051
  -------         PROC          CHARGE_DET_INIT
  C:2BF8H         LINE#         21
  C:2BF8H         LINE#         22
BL51 BANKED LINKER/LOCATER V6.22.4.0                                                  07/07/2026  17:35:16  PAGE 49


  C:2BF8H         LINE#         25
  C:2BFEH         LINE#         26
  C:2C04H         LINE#         29
  C:2C0AH         LINE#         30
  C:2C10H         LINE#         32
  -------         ENDPROC       CHARGE_DET_INIT
  -------         PROC          DETECT_1KHZ_SIGNAL_100US
  -------         DO            
  X:62D2H         SYMBOL        signal_high_duration
  X:62D4H         SYMBOL        signal_low_duration
  X:62D6H         SYMBOL        detection_state
  X:62D7H         SYMBOL        toggle_count_in_period
  X:62D9H         SYMBOL        measurement_period_counter
  X:62DBH         SYMBOL        is_detected_signal
  X:6263H         SYMBOL        current_pin_state
  X:62DCH         SYMBOL        consecutive_detection_count
  X:62DEH         SYMBOL        undetected_charging_count
  -------         ENDDO         
  C:0F0CH         LINE#         36
  C:0F0CH         LINE#         37
  C:0F0CH         LINE#         49
  C:0F14H         LINE#         57
  C:0F1AH         LINE#         60
  C:0F2BH         LINE#         61
  C:0F2BH         LINE#         62
  C:0F31H         LINE#         63
  C:0F40H         LINE#         64
  C:0F40H         LINE#         66
  C:0F44H         LINE#         67
  C:0F48H         LINE#         68
  C:0F4CH         LINE#         69
  C:0F4FH         LINE#         70
  C:0F4FH         LINE#         71
  C:0F51H         LINE#         73
  C:0F51H         LINE#         74
  C:0F58H         LINE#         75
  C:0F58H         LINE#         77
  C:0F69H         LINE#         78
  C:0F69H         LINE#         79
  C:0F69H         LINE#         80
  C:0F70H         LINE#         81
  C:0F70H         LINE#         82
  C:0F73H         LINE#         83
  C:0F7BH         LINE#         84
  C:0F7BH         LINE#         85
  C:0F7EH         LINE#         87
  C:0F7EH         LINE#         88
  C:0F81H         LINE#         89
  C:0F88H         LINE#         90
  C:0F8FH         LINE#         91
  C:0F8FH         LINE#         92
  C:0F92H         LINE#         94
  C:0F92H         LINE#         95
  C:0F99H         LINE#         96
  C:0F99H         LINE#         97
  C:0FA4H         LINE#         98
  C:0FA4H         LINE#         99
BL51 BANKED LINKER/LOCATER V6.22.4.0                                                  07/07/2026  17:35:16  PAGE 50


  C:0FAAH         LINE#         100
  C:0FAAH         LINE#         102
  C:0FAAH         LINE#         103
  C:0FADH         LINE#         105
  C:0FADH         LINE#         106
  C:0FB3H         LINE#         107
  C:0FB6H         LINE#         112
  C:0FD4H         LINE#         113
  C:0FD4H         LINE#         114
  C:0FD7H         LINE#         115
  C:0FD7H         LINE#         116
  C:0FD7H         LINE#         117
  C:0FD7H         LINE#         118
  C:0FD9H         LINE#         120
  C:0FD9H         LINE#         121
  C:0FDFH         LINE#         122
  C:0FDFH         LINE#         123
  C:0FE5H         LINE#         124
  C:0FE9H         LINE#         125
  C:0FEBH         LINE#         127
  C:0FEBH         LINE#         128
  C:0FF1H         LINE#         129
  C:0FF4H         LINE#         134
  C:1012H         LINE#         135
  C:1012H         LINE#         136
  C:1015H         LINE#         137
  C:1015H         LINE#         139
  C:101CH         LINE#         140
  C:101CH         LINE#         141
  C:101CH         LINE#         142
  C:101CH         LINE#         144
  C:102BH         LINE#         145
  C:102BH         LINE#         146
  C:102FH         LINE#         152
  C:103DH         LINE#         153
  C:103DH         LINE#         154
  C:1043H         LINE#         155
  C:1045H         LINE#         156
  C:1054H         LINE#         157
  C:1054H         LINE#         159
  C:1059H         LINE#         160
  C:1059H         LINE#         161
  C:1060H         LINE#         162
  C:1060H         LINE#         164
  C:1066H         LINE#         165
  C:1066H         LINE#         166
  C:106AH         LINE#         167
  C:1079H         LINE#         168
  C:1079H         LINE#         169
  C:107FH         LINE#         170
  C:107FH         LINE#         173
  C:108EH         LINE#         174
  C:108EH         LINE#         175
  C:1094H         LINE#         177
  C:109EH         LINE#         178
  C:109EH         LINE#         179
  C:109FH         LINE#         181
BL51 BANKED LINKER/LOCATER V6.22.4.0                                                  07/07/2026  17:35:16  PAGE 51


  C:109FH         LINE#         182
  C:10AEH         LINE#         183
  C:10AEH         LINE#         184
  C:10B5H         LINE#         185
  C:10B5H         LINE#         186
  C:10B5H         LINE#         189
  -------         ENDPROC       DETECT_1KHZ_SIGNAL_100US
  -------         PROC          DETECT_DISCHARGE_1KHZ_SIGNAL_100US
  -------         DO            
  X:62E0H         SYMBOL        signal_high_duration
  X:62E2H         SYMBOL        signal_low_duration
  X:62E4H         SYMBOL        detection_state
  X:62E5H         SYMBOL        toggle_count_in_period
  X:62E7H         SYMBOL        measurement_period_counter
  X:6263H         SYMBOL        current_pin_state
  X:62E9H         SYMBOL        is_detected_signal
  X:62EAH         SYMBOL        detect_discharge_signal_cnt
  X:62EBH         SYMBOL        undetect_discharge_signal_cnt
  -------         ENDDO         
  C:13D7H         LINE#         192
  C:13D7H         LINE#         193
  C:13D7H         LINE#         209
  C:13DFH         LINE#         221
  C:13E5H         LINE#         226
  C:13F9H         LINE#         227
  C:13F9H         LINE#         228
  C:13F9H         LINE#         229
  C:1403H         LINE#         230
  C:1403H         LINE#         235
  C:1406H         LINE#         236
  C:140EH         LINE#         237
  C:140EH         LINE#         238
  C:1411H         LINE#         240
  C:1411H         LINE#         241
  C:1414H         LINE#         242
  C:141BH         LINE#         243
  C:1422H         LINE#         244
  C:1422H         LINE#         245
  C:1425H         LINE#         247
  C:1425H         LINE#         248
  C:142CH         LINE#         249
  C:142CH         LINE#         250
  C:1437H         LINE#         251
  C:1437H         LINE#         252
  C:143DH         LINE#         253
  C:143DH         LINE#         255
  C:143DH         LINE#         256
  C:1440H         LINE#         258
  C:1440H         LINE#         259
  C:1446H         LINE#         260
  C:1449H         LINE#         265
  C:1467H         LINE#         266
  C:1467H         LINE#         267
  C:146DH         LINE#         268
  C:146DH         LINE#         269
  C:146DH         LINE#         270
  C:146DH         LINE#         271
BL51 BANKED LINKER/LOCATER V6.22.4.0                                                  07/07/2026  17:35:16  PAGE 52


  C:146FH         LINE#         273
  C:146FH         LINE#         274
  C:1475H         LINE#         275
  C:1475H         LINE#         276
  C:147BH         LINE#         277
  C:147FH         LINE#         278
  C:1481H         LINE#         280
  C:1481H         LINE#         281
  C:1487H         LINE#         282
  C:148AH         LINE#         287
  C:14A8H         LINE#         288
  C:14A8H         LINE#         289
  C:14AEH         LINE#         290
  C:14AEH         LINE#         292
  C:14B5H         LINE#         293
  C:14B5H         LINE#         294
  C:14B5H         LINE#         295
  C:14B5H         LINE#         297
  C:14C4H         LINE#         298
  C:14C4H         LINE#         299
  C:14C8H         LINE#         305
  C:14D6H         LINE#         306
  C:14D6H         LINE#         307
  C:14DCH         LINE#         308
  C:14DEH         LINE#         309
  C:14EDH         LINE#         310
  C:14EDH         LINE#         311
  C:14F2H         LINE#         312
  C:14F2H         LINE#         315
  C:14F9H         LINE#         317
  C:14FFH         LINE#         318
  C:14FFH         LINE#         319
  C:1504H         LINE#         320
  C:150AH         LINE#         321
  C:1510H         LINE#         322
  C:1510H         LINE#         323
  C:1512H         LINE#         325
  C:1517H         LINE#         326
  C:1517H         LINE#         327
  C:1518H         LINE#         329
  C:1518H         LINE#         330
  C:151DH         LINE#         331
  C:1521H         LINE#         332
  C:1527H         LINE#         333
  C:1527H         LINE#         334
  C:1529H         LINE#         336
  C:152DH         LINE#         337
  C:152DH         LINE#         338
  C:152DH         LINE#         339
  C:152DH         LINE#         340
  -------         ENDPROC       DETECT_DISCHARGE_1KHZ_SIGNAL_100US
  -------         PROC          CHARGE_DET_TIME_ADD
  C:0045H         LINE#         342
  C:0045H         LINE#         343
  C:0045H         LINE#         344
  C:0047H         LINE#         345
  -------         ENDPROC       CHARGE_DET_TIME_ADD
BL51 BANKED LINKER/LOCATER V6.22.4.0                                                  07/07/2026  17:35:16  PAGE 53


  -------         PROC          CHARGE_DET
  -------         DO            
  X:62ECH         SYMBOL        adc_val_of_solar_panel
  X:62EEH         SYMBOL        adc_val_of_type_c
  X:6206H         SYMBOL        voltage_mv
  X:62F0H         SYMBOL        is_discharge_det_time_cnt
  -------         ENDDO         
  C:152EH         LINE#         349
  C:152EH         LINE#         350
  C:152EH         LINE#         353
  C:1535H         LINE#         358
  C:153DH         LINE#         359
  C:153DH         LINE#         360
  C:1542H         LINE#         361
  C:154FH         LINE#         362
  C:154FH         LINE#         364
  C:1557H         LINE#         365
  C:1557H         LINE#         366
  C:155CH         LINE#         367
  C:1569H         LINE#         368
  C:1569H         LINE#         370
  C:156FH         LINE#         371
  C:156FH         LINE#         372
  C:1571H         LINE#         373
  C:1571H         LINE#         375
  C:1571H         LINE#         378
  C:1571H         LINE#         388
  C:1591H         LINE#         390
  C:15A6H         LINE#         391
  C:15A6H         LINE#         392
  C:15ABH         LINE#         393
  C:15B1H         LINE#         394
  C:15B6H         LINE#         395
  C:15B6H         LINE#         396
  C:15B8H         LINE#         398
  C:15BDH         LINE#         403
  C:15BDH         LINE#         404
  C:15BFH         LINE#         406
  C:15BFH         LINE#         407
  C:15C4H         LINE#         408
  C:15C8H         LINE#         409
  C:15CEH         LINE#         410
  C:15CEH         LINE#         411
  C:15D0H         LINE#         413
  C:15D4H         LINE#         418
  C:15D4H         LINE#         419
  C:15D4H         LINE#         436
  C:15FFH         LINE#         438
  C:15FFH         LINE#         441
  C:15FFH         LINE#         443
  C:1602H         LINE#         444
  C:1604H         LINE#         445
  C:1606H         LINE#         446
  C:160FH         LINE#         447
  C:160FH         LINE#         449
  C:1615H         LINE#         450
  C:1615H         LINE#         452
BL51 BANKED LINKER/LOCATER V6.22.4.0                                                  07/07/2026  17:35:16  PAGE 54


  C:161BH         LINE#         453
  C:1620H         LINE#         454
  C:1620H         LINE#         455
  C:1622H         LINE#         457
  C:1627H         LINE#         458
  C:1627H         LINE#         459
  C:1627H         LINE#         460
  C:1629H         LINE#         462
  C:1629H         LINE#         465
  C:1629H         LINE#         467
  C:162CH         LINE#         468
  C:162CH         LINE#         472
  C:1638H         LINE#         473
  C:1638H         LINE#         474
  C:163EH         LINE#         477
  C:1643H         LINE#         478
  C:1647H         LINE#         479
  C:1648H         LINE#         480
  C:1654H         LINE#         481
  C:1654H         LINE#         482
  C:1658H         LINE#         483
  C:1658H         LINE#         500
  -------         ENDPROC       CHARGE_DET
  -------         ENDMOD        CHARGE_DET

  -------         MODULE        LOW_POWER
  C:0000H         SYMBOL        _ICE_DUMMY_
  D:00BAH         PUBLIC        LP_CON
  D:008DH         PUBLIC        LP_WKCON
  D:008EH         PUBLIC        LP_WKPND
  D:00A8H         PUBLIC        IE0
  D:00A9H         PUBLIC        IE1
  D:00AAH         PUBLIC        IE2
  D:00ABH         PUBLIC        IE3
  B:00A8H.7       PUBLIC        IE_EA
  D:00B8H         PUBLIC        IP0
  D:00B1H         PUBLIC        IP1
  D:00B2H         PUBLIC        IP2
  D:00B3H         PUBLIC        IP3
  D:00B4H         PUBLIC        IP4
  D:00B5H         PUBLIC        IP5
  D:00B6H         PUBLIC        IP6
  D:00B7H         PUBLIC        IP7
  D:00D2H         PUBLIC        UART0_CON0
  D:00D1H         PUBLIC        TMR_ALLCON
  D:00ACH         PUBLIC        FLASH_TIMEREG1
  D:0099H         PUBLIC        ADC_CHS0
  C:0B98H         PUBLIC        low_power_handle
  C:28EDH         PUBLIC        low_power_enter_timer_callback
  X:6333H         SYMBOL        is_low_power_enter_enable
  C:2AA1H         PUBLIC        is_low_power_condition_establish
  C:1778H         PUBLIC        low_power_in
  C:2538H         PUBLIC        low_power_out
  C:2C29H         PUBLIC        WUT_IRQHandler
  C:2CB0H         SYMBOL        Com0075
  C:2CB0H         SYMBOL        L?0118
  C:2CBDH         SYMBOL        L?0119
BL51 BANKED LINKER/LOCATER V6.22.4.0                                                  07/07/2026  17:35:16  PAGE 55


  C:2CBDH         SYMBOL        L?0120
  -------         PROC          COM0075
  -------         ENDPROC       COM0075
  -------         PROC          IS_LOW_POWER_CONDITION_ESTABLISH
  C:2AA1H         LINE#         8
  C:2AA1H         LINE#         9
  C:2AA1H         LINE#         15
  C:2AC4H         LINE#         20
  -------         ENDPROC       IS_LOW_POWER_CONDITION_ESTABLISH
  -------         PROC          LOW_POWER_ENTER_TIMER_CALLBACK
  -------         DO            
  X:632FH         SYMBOL        cnt
  -------         ENDDO         
  C:28EDH         LINE#         23
  C:28EDH         LINE#         24
  C:28EDH         LINE#         26
  C:28F3H         LINE#         27
  C:28F3H         LINE#         28
  C:28FDH         LINE#         29
  C:290CH         LINE#         30
  C:290CH         LINE#         31
  C:290DH         LINE#         32
  C:2914H         LINE#         33
  C:2914H         LINE#         34
  C:2915H         LINE#         36
  C:2915H         LINE#         37
  C:2919H         LINE#         38
  C:291FH         LINE#         39
  C:291FH         LINE#         40
  -------         ENDPROC       LOW_POWER_ENTER_TIMER_CALLBACK
  -------         PROC          LOW_POWER_IN
  C:1778H         LINE#         42
  C:1778H         LINE#         43
  C:1778H         LINE#         48
  C:177BH         LINE#         49
  C:177EH         LINE#         50
  C:1781H         LINE#         51
  C:1784H         LINE#         53
  C:178AH         LINE#         54
  C:1790H         LINE#         56
  C:1797H         LINE#         58
  C:179AH         LINE#         59
  C:17A0H         LINE#         61
  C:17A5H         LINE#         62
  C:17A8H         LINE#         71
  C:17AEH         LINE#         72
  C:17B4H         LINE#         74
  C:17BAH         LINE#         75
  C:17C0H         LINE#         78
  C:17C6H         LINE#         79
  C:17CAH         LINE#         80
  C:17D0H         LINE#         83
  C:17D4H         LINE#         84
  C:17DAH         LINE#         85
  C:17DEH         LINE#         86
  C:17E3H         LINE#         104
  C:17E7H         LINE#         105
BL51 BANKED LINKER/LOCATER V6.22.4.0                                                  07/07/2026  17:35:16  PAGE 56


  C:17EDH         LINE#         108
  C:17F2H         LINE#         110
  C:17F6H         LINE#         113
  C:17FAH         LINE#         114
  C:1800H         LINE#         116
  C:1807H         LINE#         122
  C:180AH         LINE#         131
  C:1810H         LINE#         132
  C:1816H         LINE#         133
  C:181CH         LINE#         134
  C:1822H         LINE#         138
  C:1825H         LINE#         139
  C:1828H         LINE#         140
  C:182BH         LINE#         143
  C:182EH         LINE#         144
  C:1831H         LINE#         146
  C:1834H         LINE#         147
  C:1837H         LINE#         150
  C:183AH         LINE#         151
  C:183DH         LINE#         154
  C:1840H         LINE#         155
  C:1842H         LINE#         158
  C:1849H         LINE#         159
  C:184DH         LINE#         163
  C:1852H         LINE#         164
  C:1859H         LINE#         166
  C:1860H         LINE#         168
  C:1867H         LINE#         169
  C:186EH         LINE#         170
  C:1871H         LINE#         172
  C:1878H         LINE#         173
  C:187FH         LINE#         178
  C:1882H         LINE#         184
  -------         ENDPROC       LOW_POWER_IN
  -------         PROC          LOW_POWER_OUT
  C:2538H         LINE#         186
  C:2538H         LINE#         187
  C:2538H         LINE#         189
  C:253BH         LINE#         190
  C:2542H         LINE#         191
  C:2549H         LINE#         194
  C:254CH         LINE#         198
  C:2551H         LINE#         199
  C:2553H         LINE#         205
  C:255AH         LINE#         206
  C:255FH         LINE#         207
  C:2566H         LINE#         209
  C:256DH         LINE#         210
  C:2574H         LINE#         212
  C:2577H         LINE#         213
  C:257AH         LINE#         214
  C:2581H         LINE#         217
  -------         ENDPROC       LOW_POWER_OUT
  C:0D44H         SYMBOL        L?0116
  -------         PROC          LOW_POWER_HANDLE
  -------         DO            
  X:6331H         SYMBOL        update_bat_percent_cnt
BL51 BANKED LINKER/LOCATER V6.22.4.0                                                  07/07/2026  17:35:16  PAGE 57


  D:0007H         SYMBOL        tmp_bat_percent
  X:6206H         SYMBOL        is_charge_sig_wkup
  X:6207H         SYMBOL        is_discharge_sig_wkup
  X:6208H         SYMBOL        is_key_sig_wkup
  X:6209H         SYMBOL        adc_val
  C:0BBBH         SYMBOL        label_low_power_in
  -------         ENDDO         
  C:0B98H         LINE#         222
  C:0B98H         LINE#         223
  C:0B98H         LINE#         226
  C:0B9DH         LINE#         227
  C:0B9EH         LINE#         228
  C:0B9EH         LINE#         231
  C:0BABH         LINE#         232
  C:0BABH         LINE#         233
  C:0BB2H         LINE#         234
  C:0BB2H         LINE#         236
  C:0BB2H         LINE#         238
  C:0BB2H         LINE#         241
  C:0BB8H         LINE#         243
  C:0BBBH         LINE#         245
  C:0BC0H         LINE#         246
  C:0BC2H         LINE#         247
  C:0BC4H         LINE#         249
  C:0BC7H         LINE#         250
  C:0BCAH         LINE#         253
  C:0BCDH         LINE#         254
  C:0BD6H         LINE#         258
  C:0BD9H         LINE#         259
  C:0BDCH         LINE#         261
  C:0BDEH         LINE#         262
  C:0BDEH         LINE#         263
  C:0BE1H         LINE#         265
  C:0BE9H         LINE#         266
  C:0BE9H         LINE#         268
  C:0BEFH         LINE#         272
  C:0BEFH         LINE#         274
  C:0BF1H         LINE#         275
  C:0BF1H         LINE#         276
  C:0BF4H         LINE#         278
  C:0C19H         LINE#         279
  C:0C19H         LINE#         280
  C:0C1FH         LINE#         284
  C:0C1FH         LINE#         299
  C:0C24H         LINE#         300
  C:0C24H         LINE#         302
  C:0C2DH         LINE#         304
  C:0C30H         LINE#         305
  C:0C36H         LINE#         306
  C:0C36H         LINE#         308
  C:0C3BH         LINE#         309
  C:0C3BH         LINE#         311
  C:0C3EH         LINE#         313
  C:0C44H         LINE#         316
  C:0C4DH         LINE#         318
  C:0C4DH         LINE#         320
  C:0C52H         LINE#         321
BL51 BANKED LINKER/LOCATER V6.22.4.0                                                  07/07/2026  17:35:16  PAGE 58


  C:0C59H         LINE#         322
  C:0C64H         LINE#         323
  C:0C6FH         LINE#         325
  C:0C79H         LINE#         326
  C:0C88H         LINE#         327
  C:0C88H         LINE#         333
  C:0C8CH         LINE#         334
  C:0C97H         LINE#         335
  C:0C9FH         LINE#         336
  C:0C9FH         LINE#         337
  C:0CA5H         LINE#         338
  C:0CA5H         LINE#         339
  C:0CA8H         LINE#         340
  C:0CA8H         LINE#         341
  C:0CAAH         LINE#         342
  C:0CB2H         LINE#         343
  C:0CB2H         LINE#         344
  C:0CB8H         LINE#         345
  C:0CB8H         LINE#         346
  C:0CBBH         LINE#         347
  C:0CBBH         LINE#         348
  C:0CBBH         LINE#         351
  C:0CC4H         LINE#         352
  C:0CDAH         LINE#         354
  C:0CDAH         LINE#         361
  C:0CFEH         LINE#         367
  C:0CFEH         LINE#         370
  C:0D20H         LINE#         373
  C:0D20H         LINE#         374
  C:0D29H         LINE#         375
  C:0D29H         LINE#         380
  C:0D2CH         LINE#         381
  C:0D2CH         LINE#         389
  C:0D31H         LINE#         390
  C:0D35H         LINE#         391
  C:0D40H         LINE#         392
  C:0D43H         LINE#         393
  -------         ENDPROC       LOW_POWER_HANDLE
  -------         PROC          WUT_IRQHANDLER
  C:2C29H         LINE#         396
  C:2C2FH         LINE#         399
  C:2C2FH         LINE#         404
  C:2C36H         LINE#         405
  C:2C36H         LINE#         406
  C:2C3AH         LINE#         407
  C:2C3AH         LINE#         410
  C:2C3AH         LINE#         411
  -------         ENDPROC       WUT_IRQHANDLER
  -------         ENDMOD        LOW_POWER

  -------         MODULE        ?C?COPY
  C:011EH         PUBLIC        ?C?COPY
  -------         ENDMOD        ?C?COPY

  -------         MODULE        ?C?CLDPTR
  C:0144H         PUBLIC        ?C?CLDPTR
  -------         ENDMOD        ?C?CLDPTR
BL51 BANKED LINKER/LOCATER V6.22.4.0                                                  07/07/2026  17:35:16  PAGE 59



  -------         MODULE        ?C?CLDOPTR
  C:015DH         PUBLIC        ?C?CLDOPTR
  -------         ENDMOD        ?C?CLDOPTR

  -------         MODULE        ?C?CILDOPTR
  C:018AH         PUBLIC        ?C?CILDOPTR
  -------         ENDMOD        ?C?CILDOPTR

  -------         MODULE        ?C?CSTOPTR
  C:01BDH         PUBLIC        ?C?CSTOPTR
  -------         ENDMOD        ?C?CSTOPTR

  -------         MODULE        ?C?UIDIV
  C:01DFH         PUBLIC        ?C?UIDIV
  -------         ENDMOD        ?C?UIDIV

  -------         MODULE        ?C?IILDX
  C:0234H         PUBLIC        ?C?IILDX
  -------         ENDMOD        ?C?IILDX

  -------         MODULE        ?C?LADD
  C:024AH         PUBLIC        ?C?LADD
  -------         ENDMOD        ?C?LADD

  -------         MODULE        ?C?ULDIV
  C:0293H         PUBLIC        ?C?ULDIV
  -------         ENDMOD        ?C?ULDIV

  -------         MODULE        ?C?SLCMP
  C:0325H         PUBLIC        ?C?SLCMP
  -------         ENDMOD        ?C?SLCMP

  -------         MODULE        ?C?ULCMP
  C:033BH         PUBLIC        ?C?ULCMP
  -------         ENDMOD        ?C?ULCMP

  -------         MODULE        ?C?LLDXDATA
  C:034CH         PUBLIC        ?C?LLDXDATA
  -------         ENDMOD        ?C?LLDXDATA

  -------         MODULE        ?C?LLDXDATA0
  C:0358H         PUBLIC        ?C?LLDXDATA0
  -------         ENDMOD        ?C?LLDXDATA0

  -------         MODULE        ?C?LSTXDATA
  C:0364H         PUBLIC        ?C?LSTXDATA
  -------         ENDMOD        ?C?LSTXDATA

  -------         MODULE        ?C?LSTKXDATA
  C:0370H         PUBLIC        ?C?LSTKXDATA
  -------         ENDMOD        ?C?LSTKXDATA

  -------         MODULE        ?C?PLDXDATA
  C:03A1H         PUBLIC        ?C?PLDXDATA
  -------         ENDMOD        ?C?PLDXDATA

BL51 BANKED LINKER/LOCATER V6.22.4.0                                                  07/07/2026  17:35:16  PAGE 60


  -------         MODULE        ?C?PSTXDATA
  C:03AAH         PUBLIC        ?C?PSTXDATA
  -------         ENDMOD        ?C?PSTXDATA

  -------         MODULE        ?C?PLDOPTR
  C:03B3H         PUBLIC        ?C?PLDOPTR
  -------         ENDMOD        ?C?PLDOPTR

  -------         MODULE        ?C?CCASE
  C:03E3H         PUBLIC        ?C?CCASE
  -------         ENDMOD        ?C?CCASE

  -------         MODULE        ?C?ICALL
  C:0409H         PUBLIC        ?C?ICALL
  C:040DH         PUBLIC        ?C?ICALL2
  -------         ENDMOD        ?C?ICALL

  -------         MODULE        ?C?LIMUL
  C:040FH         PUBLIC        ?C?LIMUL
  -------         ENDMOD        ?C?LIMUL

  -------         MODULE        PRINTF
  X:6239H         PUBLIC        ?_PRINTF517?BYTE
  X:6239H         PUBLIC        ?_PRINTF?BYTE
  X:6239H         PUBLIC        ?_SPRINTF517?BYTE
  X:6239H         PUBLIC        ?_SPRINTF?BYTE
  C:089EH         PUBLIC        _PRINTF
  C:089EH         PUBLIC        _PRINTF517
  C:0898H         PUBLIC        _SPRINTF
  C:0898H         PUBLIC        _SPRINTF517
  -------         ENDMOD        PRINTF

  -------         MODULE        ?C?MEMSET
  C:043CH         PUBLIC        ?C?MEMSET
  -------         ENDMOD        ?C?MEMSET

  -------         MODULE        ?C?CSTPTR
  C:0468H         PUBLIC        ?C?CSTPTR
  -------         ENDMOD        ?C?CSTPTR

  -------         MODULE        ?C?PLDIDATA
  C:047AH         PUBLIC        ?C?PLDIDATA
  -------         ENDMOD        ?C?PLDIDATA

  -------         MODULE        ?C?PLDIXDATA
  C:0483H         PUBLIC        ?C?PLDIXDATA
  -------         ENDMOD        ?C?PLDIXDATA

  -------         MODULE        ?C?PLDPDATA
  C:049AH         PUBLIC        ?C?PLDPDATA
  -------         ENDMOD        ?C?PLDPDATA

  -------         MODULE        ?C?PLDCODE
  C:04A3H         PUBLIC        ?C?PLDCODE
  -------         ENDMOD        ?C?PLDCODE

*** WARNING L15: MULTIPLE CALL TO SEGMENT
BL51 BANKED LINKER/LOCATER V6.22.4.0                                                  07/07/2026  17:35:16  PAGE 61


    SEGMENT: ?PR?_GET_BATTERY_PERCENTAGE_BY_VOLTAGE?BATTERY_MONITOR
    CALLER1: ?C_C51STARTUP
    CALLER2: ?PR?ADC_IRQHANDLER?ADC

*** WARNING L15: MULTIPLE CALL TO SEGMENT
    SEGMENT: ?PR?PRINTF?PRINTF
    CALLER1: ?C_C51STARTUP
    CALLER2: ?PR?ADC_IRQHANDLER?ADC

Program Size: data=21.7 xdata=830 code=11725
LINK/LOCATE RUN COMPLETE.  2 WARNING(S),  0 ERROR(S)
